libfdk-aac.so.2:FDK_Copy
libfdk-aac.so.2:FDK_CreateBitBuffer
libfdk-aac.so.2:FDK_DeleteBitBuffer
libfdk-aac.so.2:FDK_Feed
libfdk-aac.so.2:FDK_Fetch
libfdk-aac.so.2:FDK_InitBitBuffer
libfdk-aac.so.2:FDK_ResetBitBuffer
libfdk-aac.so.2:FDK_SpatialDecClose
libfdk-aac.so.2:FDK_SpatialDecCompareSpatialSpecificConfigHeader
libfdk-aac.so.2:FDK_SpatialDecInit
libfdk-aac.so.2:FDK_SpatialDecInitDefaultSpatialSpecificConfig
libfdk-aac.so.2:FDK_SpatialDecOpen
libfdk-aac.so.2:FDK_chMapDescr_getMapValue
libfdk-aac.so.2:FDK_chMapDescr_init
libfdk-aac.so.2:FDK_chMapDescr_isValid
libfdk-aac.so.2:FDK_chMapDescr_setPassThrough
libfdk-aac.so.2:FDK_drcDec_ApplyDownmix
libfdk-aac.so.2:FDK_drcDec_Close
libfdk-aac.so.2:FDK_drcDec_GetGroupLoudness
libfdk-aac.so.2:FDK_drcDec_GetLibInfo
libfdk-aac.so.2:FDK_drcDec_GetParam
libfdk-aac.so.2:FDK_drcDec_GetSelectionProcessOutput
libfdk-aac.so.2:FDK_drcDec_Init
libfdk-aac.so.2:FDK_drcDec_Open
libfdk-aac.so.2:FDK_drcDec_Preprocess
libfdk-aac.so.2:FDK_drcDec_ProcessFreq
libfdk-aac.so.2:FDK_drcDec_ProcessTime
libfdk-aac.so.2:FDK_drcDec_ReadDownmixInstructions_Box
libfdk-aac.so.2:FDK_drcDec_ReadLoudnessBox
libfdk-aac.so.2:FDK_drcDec_ReadLoudnessInfoSet
libfdk-aac.so.2:FDK_drcDec_ReadUniDrc
libfdk-aac.so.2:FDK_drcDec_ReadUniDrcCoefficients_Box
libfdk-aac.so.2:FDK_drcDec_ReadUniDrcConfig
libfdk-aac.so.2:FDK_drcDec_ReadUniDrcGain
libfdk-aac.so.2:FDK_drcDec_ReadUniDrcInstructions_Box
libfdk-aac.so.2:FDK_drcDec_SetChannelGains
libfdk-aac.so.2:FDK_drcDec_SetCodecMode
libfdk-aac.so.2:FDK_drcDec_SetDownmixInstructions
libfdk-aac.so.2:FDK_drcDec_SetInterfaceParameters
libfdk-aac.so.2:FDK_drcDec_SetParam
libfdk-aac.so.2:FDK_drcDec_SetSelectionProcessMpeghParameters_simple
libfdk-aac.so.2:FDK_drcDec_SetSelectionProcessOutput
libfdk-aac.so.2:FDK_get
libfdk-aac.so.2:FDK_get32
libfdk-aac.so.2:FDK_getBwd
libfdk-aac.so.2:FDK_getFreeBits
libfdk-aac.so.2:FDK_getValidBits
libfdk-aac.so.2:FDK_pushBack
libfdk-aac.so.2:FDK_pushForward
libfdk-aac.so.2:FDK_put
libfdk-aac.so.2:FDK_putBwd
libfdk-aac.so.2:FDK_sacenc_close
libfdk-aac.so.2:FDK_sacenc_encode
libfdk-aac.so.2:FDK_sacenc_getInfo
libfdk-aac.so.2:FDK_sacenc_getLibInfo
libfdk-aac.so.2:FDK_sacenc_init
libfdk-aac.so.2:FDK_sacenc_open
libfdk-aac.so.2:FDK_sacenc_setParam
libfdk-aac.so.2:FDK_toolsGetLibInfo
libfdk-aac.so.2:FDKaacEnc_AacInitDefaultConfig
libfdk-aac.so.2:FDKaacEnc_AdjustVBRBitrateMode
libfdk-aac.so.2:FDKaacEnc_CalcBitrate
libfdk-aac.so.2:FDKaacEnc_CalcBitsPerFrame
libfdk-aac.so.2:FDKaacEnc_Close
libfdk-aac.so.2:FDKaacEnc_EncodeFrame
libfdk-aac.so.2:FDKaacEnc_GetBitReservoirState
libfdk-aac.so.2:FDKaacEnc_GetVBRBitrate
libfdk-aac.so.2:FDKaacEnc_Initialize
libfdk-aac.so.2:FDKaacEnc_LimitBitrate
libfdk-aac.so.2:FDKaacEnc_Open
libfdk-aac.so.2:FDKaalloc
libfdk-aac.so.2:FDKaalloc_L
libfdk-aac.so.2:FDKafree
libfdk-aac.so.2:FDKafree_L
libfdk-aac.so.2:FDKcalloc
libfdk-aac.so.2:FDKcalloc_L
libfdk-aac.so.2:FDKfclose
libfdk-aac.so.2:FDKfeof
libfdk-aac.so.2:FDKfflush
libfdk-aac.so.2:FDKfgets
libfdk-aac.so.2:FDKfopen
libfdk-aac.so.2:FDKfprintf
libfdk-aac.so.2:FDKfread
libfdk-aac.so.2:FDKfread_EL
libfdk-aac.so.2:FDKfree
libfdk-aac.so.2:FDKfree_L
libfdk-aac.so.2:FDKfseek
libfdk-aac.so.2:FDKftell
libfdk-aac.so.2:FDKfwrite
libfdk-aac.so.2:FDKfwrite_EL
libfdk-aac.so.2:FDKgetchar
libfdk-aac.so.2:FDKmalloc
libfdk-aac.so.2:FDKmemclear
libfdk-aac.so.2:FDKmemcmp
libfdk-aac.so.2:FDKmemcpy
libfdk-aac.so.2:FDKmemmove
libfdk-aac.so.2:FDKmemset
libfdk-aac.so.2:FDKprintDisclaimer
libfdk-aac.so.2:FDKprintf
libfdk-aac.so.2:FDKprintfErr
libfdk-aac.so.2:FDKrewind
libfdk-aac.so.2:FDKsbrEnc_EncodeIcc
libfdk-aac.so.2:FDKsbrEnc_EncodeIid
libfdk-aac.so.2:FDKsbrEnc_EncodeIpd
libfdk-aac.so.2:FDKsbrEnc_EncodeOpd
libfdk-aac.so.2:FDKsbrEnc_WritePSBitstream
libfdk-aac.so.2:FDKsprintf
libfdk-aac.so.2:FDKstrchr
libfdk-aac.so.2:FDKstrcmp
libfdk-aac.so.2:FDKstrcpy
libfdk-aac.so.2:FDKstrlen
libfdk-aac.so.2:FDKstrncmp
libfdk-aac.so.2:FDKstrncpy
libfdk-aac.so.2:FDKstrstr
libfdk-aac.so.2:IS_LITTLE_ENDIAN
libfdk-aac.so.2:SpatialDecApplyFrame
libfdk-aac.so.2:SpatialDecChannelProperties
libfdk-aac.so.2:SpatialDecInitParserContext
libfdk-aac.so.2:TO_LITTLE_ENDIAN
libfdk-aac.so.2:_Z10ApplyToolsPP22CAacDecoderChannelInfoPK16SamplingRateInfojjii
libfdk-aac.so.2:_Z10CPns_ApplyPK8CPnsDataPK8CIcsInfoPiPKsS7_PK16SamplingRateInfoii
libfdk-aac.so.2:_Z10CRvlc_ReadP22CAacDecoderChannelInfoP13FDK_BITSTREAM
libfdk-aac.so.2:_Z10CTns_ApplyP8CTnsDataPK8CIcsInfoPiPK16SamplingRateInfoihhj
libfdk-aac.so.2:_Z10CTns_ResetP8CTnsData
libfdk-aac.so.2:_Z10FDKcrcInitP11FDK_CRCINFOjjj
libfdk-aac.so.2:_Z10GetDrcInfoi
libfdk-aac.so.2:_Z10HcrDecoderP10CErHcrInfoP22CAacDecoderChannelInfoPK16SamplingRateInfoP13FDK_BITSTREAM
libfdk-aac.so.2:_Z10PSEnc_InitP19T_PARAMETRIC_STEREOP14T_PSENC_CONFIGiiPh
libfdk-aac.so.2:_Z10ReadPsDataP6PS_DECP13FDK_BITSTREAMi
libfdk-aac.so.2:_Z10ResetPsDecP6PS_DEC
libfdk-aac.so.2:_Z10fixp_atan2ii
libfdk-aac.so.2:_Z10fixp_floorii
libfdk-aac.so.2:_Z10fixp_roundii
libfdk-aac.so.2:_Z10imdct_gainPiS_i
libfdk-aac.so.2:_Z10imlt_blockP6mdct_tPiS1_PKsiiiPK8FIXP_SPKiS6_iii
libfdk-aac.so.2:_Z10mdct_blockP6mdct_tPKsiPiiiPK8FIXP_SPKiPs
libfdk-aac.so.2:_Z10setCplxVecP8FIXP_DPKii
libfdk-aac.so.2:_Z11ApplyPsSlotP6PS_DECPPiS2_S1_S1_iiiii
libfdk-aac.so.2:_Z11CreatePsDecPP6PS_DECi
libfdk-aac.so.2:_Z11DeletePsDecPP6PS_DEC
libfdk-aac.so.2:_Z11FDKcrcResetP11FDK_CRCINFO
libfdk-aac.so.2:_Z11FreeDrcInfoPP8CDrcInfo
libfdk-aac.so.2:_Z11GetArcoDatai
libfdk-aac.so.2:_Z11copyCplxVecP8FIXP_DPKPKS_i
libfdk-aac.so.2:_Z11imdct_drainP6mdct_tPii
libfdk-aac.so.2:_Z11initGainDecP16DRC_GAIN_DECODER
libfdk-aac.so.2:_Z11initM1andM2P17spatialDec_structii
libfdk-aac.so.2:_Z11pvcEndFrameP15PVC_STATIC_DATAP16PVC_DYNAMIC_DATA
libfdk-aac.so.2:_Z11resetSbrDecP7SBR_DECP15SBR_HEADER_DATAP19SBR_PREV_FRAME_DATAijP14SBR_FRAME_DATA
libfdk-aac.so.2:_Z11scaleValuesPiPKiii
libfdk-aac.so.2:_Z11scaleValuesPiii
libfdk-aac.so.2:_Z11scaleValuesPsPKiii
libfdk-aac.so.2:_Z11scaleValuesPsPKsii
libfdk-aac.so.2:_Z11scaleValuesPsii
libfdk-aac.so.2:_Z12CArco_Createv
libfdk-aac.so.2:_Z12CLpc_ConcealPA16_sPsS1_i
libfdk-aac.so.2:_Z12CRvlc_DecodeP22CAacDecoderChannelInfoP28CAacDecoderStaticChannelInfoP13FDK_BITSTREAM
libfdk-aac.so.2:_Z12FDKcrcEndRegP11FDK_CRCINFOP13FDK_BITSTREAMi
libfdk-aac.so.2:_Z12FDKcrcGetCRCP11FDK_CRCINFO
libfdk-aac.so.2:_Z12FreeArcoDataPP9CArcoData
libfdk-aac.so.2:_Z12LdDataVectorPiS_i
libfdk-aac.so.2:_Z12PSEnc_CreatePP19T_PARAMETRIC_STEREO
libfdk-aac.so.2:_Z12approxDb2liniiPi
libfdk-aac.so.2:_Z12createSbrDecP11SBR_CHANNELP15SBR_HEADER_DATAP19TRANSPOSER_SETTINGSijjiii
libfdk-aac.so.2:_Z12deleteSbrDecP11SBR_CHANNEL
libfdk-aac.so.2:_Z12fixp_cos_siniiPiS_
libfdk-aac.so.2:_Z12getDeltaTmini
libfdk-aac.so.2:_Z12pvcInitFrameP15PVC_STATIC_DATAP16PVC_DYNAMIC_DATAhhiiiPKh
libfdk-aac.so.2:_Z13CArco_DestroyP9CArcoData
libfdk-aac.so.2:_Z13CLpc_AnalysisPiiPKsiiS_S_
libfdk-aac.so.2:_Z13CLpd_FAC_ReadP13FDK_BITSTREAMPiPaiii
libfdk-aac.so.2:_Z13DecodeNonPCWsP13FDK_BITSTREAMP10CErHcrInfo
libfdk-aac.so.2:_Z13E_UTIL_residuPKsiPiS1_i
libfdk-aac.so.2:_Z13EcDataPairDec12DECODER_TYPEP13FDK_BITSTREAMPaS2_S2_9DATA_TYPEiiiii
libfdk-aac.so.2:_Z13GetAacDecoderi
libfdk-aac.so.2:_Z13GetRam_ps_deci
libfdk-aac.so.2:_Z13IcsReadMaxSfbP13FDK_BITSTREAMP8CIcsInfoPK16SamplingRateInfo
libfdk-aac.so.2:_Z13PSEnc_DestroyPP19T_PARAMETRIC_STEREO
libfdk-aac.so.2:_Z13dct_getTablesPPK8FIXP_SPKS2_Pii
libfdk-aac.so.2:_Z13decodeSbrDataP15SBR_HEADER_DATAP14SBR_FRAME_DATAP19SBR_PREV_FRAME_DATAS2_S4_
libfdk-aac.so.2:_Z13expandPredEsgPK16PVC_DYNAMIC_DATAiiPiPa
libfdk-aac.so.2:_Z13fixp_truncateii
libfdk-aac.so.2:_Z13initActiveDrcP16DRC_GAIN_DECODERP14UNI_DRC_CONFIGii
libfdk-aac.so.2:_Z13int_lpc_acelpPKsS0_iiPsPi
libfdk-aac.so.2:_Z13lppTransposerP13SBR_LPP_TRANSP16QMF_SCALE_FACTORPPiS3_S4_iiiiiiiP9INVF_MODES6_
libfdk-aac.so.2:_Z13subbandTPInitP7STP_DEC
libfdk-aac.so.2:_Z13sumUpCplxPow2PK8FIXP_DPKiiPii
libfdk-aac.so.2:_Z14CLpc_DecodeAVQP13FDK_BITSTREAMPiiii
libfdk-aac.so.2:_Z14CLpc_SynthesisPiiiiPKiiiS_S_
libfdk-aac.so.2:_Z14CLpc_SynthesisPiiiiPKsiiS_S_
libfdk-aac.so.2:_Z14CLpd_AcelpReadP13FDK_BITSTREAMP17CAcelpChannelDataiii
libfdk-aac.so.2:_Z14CLpd_Acelp_ZirPKsiP15CAcelpStaticMemiPii
libfdk-aac.so.2:_Z14CPns_IsPnsUsedPK8CPnsDataii
libfdk-aac.so.2:_Z14CPns_ResetDataP8CPnsDataP20CPnsInterChannelData
libfdk-aac.so.2:_Z14E_LPC_a_weightPsPKsi
libfdk-aac.so.2:_Z14E_UTIL_preemphPKiPii
libfdk-aac.so.2:_Z14FDK_interleavePKiPijjj
libfdk-aac.so.2:_Z14FDK_interleavePKiPsjjj
libfdk-aac.so.2:_Z14FDK_interleavePKsPsjjj
libfdk-aac.so.2:_Z14FDKcrcStartRegP11FDK_CRCINFOP13FDK_BITSTREAMi
libfdk-aac.so.2:_Z14FreeAacDecoderPP20AAC_DECODER_INSTANCE
libfdk-aac.so.2:_Z14FreeRam_ps_decPP6PS_DEC
libfdk-aac.so.2:_Z14Get_AacEncoderi
libfdk-aac.so.2:_Z14adtsWrite_InitP11STRUCT_ADTSP12CODER_CONFIG
libfdk-aac.so.2:_Z14checkTimeSlotsiii
libfdk-aac.so.2:_Z14fDivNormSignedii
libfdk-aac.so.2:_Z14fDivNormSignediiPi
libfdk-aac.so.2:_Z14fixp_ceilToIntii
libfdk-aac.so.2:_Z14getScalefactorPKii
libfdk-aac.so.2:_Z14getScalefactorPKsi
libfdk-aac.so.2:_Z14initHeaderDataP15SBR_HEADER_DATAiiiiji
libfdk-aac.so.2:_Z14prepareDrcGainP16DRC_GAIN_DECODERP12UNI_DRC_GAINssii
libfdk-aac.so.2:_Z14processDrcTimeP16DRC_GAIN_DECODERiiiiiiPi
libfdk-aac.so.2:_Z14pvcDecodeFrameP15PVC_STATIC_DATAP16PVC_DYNAMIC_DATAPPiS4_iii
libfdk-aac.so.2:_Z14subbandTPApplyP17spatialDec_structPK23SPATIAL_BS_FRAME_struct
libfdk-aac.so.2:_Z14sym_restoreIPDP13FDK_BITSTREAMiPa
libfdk-aac.so.2:_Z15CFac_ApplyGainsPiiiPKii
libfdk-aac.so.2:_Z15CLatmDemux_ReadP13FDK_BITSTREAMP10CLatmDemux14TRANSPORT_TYPEP13CSTpCallBacksP21CSAudioSpecificConfigPii
libfdk-aac.so.2:_Z15CLpd_AcelpResetP15CAcelpStaticMem
libfdk-aac.so.2:_Z15CLpd_DecodeGainPiS_i
libfdk-aac.so.2:_Z15CLpd_FdnsDecodeP22CAacDecoderChannelInfoP28CAacDecoderStaticChannelInfoPiiiPsPKsiS6_iS3_i
libfdk-aac.so.2:_Z15CPulseData_ReadP13FDK_BITSTREAMP10CPulseDataPKsPKvs
libfdk-aac.so.2:_Z15DecodeHuffmanCWPA2_KaP13FDK_BITSTREAM
libfdk-aac.so.2:_Z15FDK_Delay_ApplyP15FDK_SignalDelayPijh
libfdk-aac.so.2:_Z15FDKaacEnc_BCNewPP13BITCNTR_STATEPh
libfdk-aac.so.2:_Z15FDKaacEnc_QCNewPP8QC_STATEiPh
libfdk-aac.so.2:_Z15Free_AacEncoderPP10AACENCODER
libfdk-aac.so.2:_Z15GetAnaQmfStatesi
libfdk-aac.so.2:_Z15GetQmfSlotsImagi
libfdk-aac.so.2:_Z15GetQmfSlotsReali
libfdk-aac.so.2:_Z15GetRam_PsEncodei
libfdk-aac.so.2:_Z15GetSynQmfStatesi
libfdk-aac.so.2:_Z15_initValueOrderP11VALUE_ORDER
libfdk-aac.so.2:_Z15drmRead_CrcInitP10STRUCT_DRM
libfdk-aac.so.2:_Z15fdkFreeMatrix1DPv
libfdk-aac.so.2:_Z15fdkFreeMatrix2DPPv
libfdk-aac.so.2:_Z15fdkFreeMatrix3DPPPv
libfdk-aac.so.2:_Z15fixp_floorToIntii
libfdk-aac.so.2:_Z15fixp_roundToIntii
libfdk-aac.so.2:_Z15mapSineFlagsPvcPhiPjS0_PaiS1_i
libfdk-aac.so.2:_Z15subbandTPCreatePP7STP_DEC
libfdk-aac.so.2:_Z16CAacDecoder_InitP20AAC_DECODER_INSTANCEPK21CSAudioSpecificConfighPh
libfdk-aac.so.2:_Z16CAacDecoder_Open14TRANSPORT_TYPE
libfdk-aac.so.2:_Z16CBlock_GetEscapeP13FDK_BITSTREAMi
libfdk-aac.so.2:_Z16CLpc_ParcorToLpcPKiPiiS1_
libfdk-aac.so.2:_Z16CLpc_ParcorToLpcPKsPsiPi
libfdk-aac.so.2:_Z16CLpd_AcelpDecodeP15CAcelpStaticMemiPKsS2_sP17CAcelpChannelDataiiiPiS5_S5_i
libfdk-aac.so.2:_Z16CPulseData_ApplyP10CPulseDataPKsPi
libfdk-aac.so.2:_Z16CopyAlignedBlockP10FDK_BITBUFPhj
libfdk-aac.so.2:_Z16FDK_Delay_CreateP15FDK_SignalDelayth
libfdk-aac.so.2:_Z16FDK_deinterleavePKiPijjj
libfdk-aac.so.2:_Z16FDK_deinterleavePKiPsjjj
libfdk-aac.so.2:_Z16FDK_deinterleavePKsPijjj
libfdk-aac.so.2:_Z16FDK_deinterleavePKsPsjjj
libfdk-aac.so.2:_Z16FDKaacEnc_PsyNewPP12PSY_INTERNALiiPh
libfdk-aac.so.2:_Z16FDKaacEnc_QCInitP8QC_STATEP7QC_INITj
libfdk-aac.so.2:_Z16FDKaacEnc_QCMainP8QC_STATEPP7PSY_OUTPP6QC_OUTiP15CHANNEL_MAPPING17AUDIO_OBJECT_TYPEja
libfdk-aac.so.2:_Z16FreeAnaQmfStatesPPi
libfdk-aac.so.2:_Z16FreeQmfSlotsImagPPPi
libfdk-aac.so.2:_Z16FreeQmfSlotsRealPPPi
libfdk-aac.so.2:_Z16FreeRam_PsEncodePP11T_PS_ENCODE
libfdk-aac.so.2:_Z16FreeSynQmfStatesPPi
libfdk-aac.so.2:_Z16GetOverlapBufferi
libfdk-aac.so.2:_Z16GetTimeDataFlushi
libfdk-aac.so.2:_Z16TsdGenerateNonTriPK8TSD_DATAiPiS2_S2_S2_PS2_S3_
libfdk-aac.so.2:_Z16_decodeHuffmanCWPA2_KaP13FDK_BITSTREAM
libfdk-aac.so.2:_Z16adtsRead_CrcInitP11STRUCT_ADTS
libfdk-aac.so.2:_Z16autoCorr2nd_cplxP11ACORR_COEFSPKiS2_i
libfdk-aac.so.2:_Z16autoCorr2nd_realP11ACORR_COEFSPKii
libfdk-aac.so.2:_Z16calcCoherenceVecPiPKiS1_S1_S1_iii
libfdk-aac.so.2:_Z16drmRead_CrcCheckP10STRUCT_DRM
libfdk-aac.so.2:_Z16fDivNormHighPreciiPi
libfdk-aac.so.2:_Z16getChannelConfig12CHANNEL_MODEh
libfdk-aac.so.2:_Z16getDownmixOffsetP20DOWNMIX_INSTRUCTIONSi
libfdk-aac.so.2:_Z16huff_dec_reshapeP13FDK_BITSTREAMPii
libfdk-aac.so.2:_Z16lppTransposerHBEP13SBR_LPP_TRANSP13hbeTransposerP16QMF_SCALE_FACTORPPiS6_iiiiP9INVF_MODES8_
libfdk-aac.so.2:_Z16maxSubbandSamplePPiS0_iiii
libfdk-aac.so.2:_Z16pcmLimiter_ApplyP9TDLimiterPiPsS1_ij
libfdk-aac.so.2:_Z16qmfChangeOutGainP15QMF_FILTER_BANKii
libfdk-aac.so.2:_Z16sbrGetHeaderDataP15SBR_HEADER_DATAP13FDK_BITSTREAMjih
libfdk-aac.so.2:_Z16subbandTPDestroyPP7STP_DEC
libfdk-aac.so.2:_Z17CAacDecoder_CloseP20AAC_DECODER_INSTANCE
libfdk-aac.so.2:_Z17CBlock_ApplyNoiseP22CAacDecoderChannelInfoP16SamplingRateInfoPjPh
libfdk-aac.so.2:_Z17CJointStereo_ReadP13FDK_BITSTREAMP16CJointStereoDataiiiP26CJointStereoPersistentDataP19CCplxPredictionDataiiij
libfdk-aac.so.2:_Z17CLpc_AutoToParcorPiiPsiS_S_
libfdk-aac.so.2:_Z17CLpd_TcxTDConcealP15CAcelpStaticMemPsPKsS3_siPiih
libfdk-aac.so.2:_Z17FDK_Delay_DestroyP15FDK_SignalDelay
libfdk-aac.so.2:_Z17FDK_MpegsEnc_InitP11MPS_ENCODER17AUDIO_OBJECT_TYPEjjjjjj
libfdk-aac.so.2:_Z17FDK_MpegsEnc_OpenPP11MPS_ENCODER
libfdk-aac.so.2:_Z17FDKaacEnc_BCClosePP13BITCNTR_STATE
libfdk-aac.so.2:_Z17FDKaacEnc_QCClosePP8QC_STATEPP6QC_OUT
libfdk-aac.so.2:_Z17FDKaacEnc_TnsSyncP8TNS_DATAPKS_P8TNS_INFOS4_iiPK10TNS_CONFIG
libfdk-aac.so.2:_Z17FDKaacEnc_psyInitP12PSY_INTERNALPP7PSY_OUTii17AUDIO_OBJECT_TYPEP15CHANNEL_MAPPING
libfdk-aac.so.2:_Z17FDKaacEnc_psyMainiP11PSY_ELEMENTP11PSY_DYNAMICP17PSY_CONFIGURATIONP15PSY_OUT_ELEMENTPsjPii
libfdk-aac.so.2:_Z17FDKgetWindowSlopeii
libfdk-aac.so.2:_Z17FDKsbrEnc_AddLeftPiS_i
libfdk-aac.so.2:_Z17FreeOverlapBufferPPi
libfdk-aac.so.2:_Z17FreeTimeDataFlushPPi
libfdk-aac.so.2:_Z17GetAACdynamic_RAMi
libfdk-aac.so.2:_Z17GetAnaQmfStates16i
libfdk-aac.so.2:_Z17GetAnaQmfStates24i
libfdk-aac.so.2:_Z17GetAnaQmfStates32i
libfdk-aac.so.2:_Z17GetPcmDmxInstancei
libfdk-aac.so.2:_Z17GetQmfSlotsImag16i
libfdk-aac.so.2:_Z17GetQmfSlotsImag32i
libfdk-aac.so.2:_Z17GetQmfSlotsReal16i
libfdk-aac.so.2:_Z17GetQmfSlotsReal32i
libfdk-aac.so.2:_Z17GetRam_SbrChanneli
libfdk-aac.so.2:_Z17GetRam_SbrDecoderi
libfdk-aac.so.2:_Z17GetRam_SbrElementi
libfdk-aac.so.2:_Z17GetRam_SbrEncoderi
libfdk-aac.so.2:_Z17ResetLimiterBandsPhS_S_iPK11PATCH_PARAMiihPii
libfdk-aac.so.2:_Z17SpatialDecApplyM2P17spatialDec_structisPPiS2_S2_S2_S2_S2_
libfdk-aac.so.2:_Z17SpatialDecCreateXP17spatialDec_structPPiS2_S2_S2_
libfdk-aac.so.2:_Z17SpatialDecFeedQMFP17spatialDec_structPPiS2_iiS2_S2_i
libfdk-aac.so.2:_Z17adtsRead_CrcCheckP11STRUCT_ADTS
libfdk-aac.so.2:_Z17aliasingReductionPiP13ENV_CALC_NRGSPhi
libfdk-aac.so.2:_Z17bass_pf_1sf_delayPiPKiS_iiiS_iS_
libfdk-aac.so.2:_Z17decodeRVLCodewordP13FDK_BITSTREAMP11CErRvlcInfo
libfdk-aac.so.2:_Z17drcDec_readUniDrcP13FDK_BITSTREAMP14UNI_DRC_CONFIGP17LOUDNESS_INFO_SETiiP12UNI_DRC_GAIN
libfdk-aac.so.2:_Z17drmRead_CrcEndRegP10STRUCT_DRMP13FDK_BITSTREAMi
libfdk-aac.so.2:_Z17fdkCallocMatrix1Djj
libfdk-aac.so.2:_Z17fdkCallocMatrix2Djjj
libfdk-aac.so.2:_Z17fdkCallocMatrix3Djjjj
libfdk-aac.so.2:_Z17getScalefactorPCMPKsii
libfdk-aac.so.2:_Z17pcmLimiter_Createjjijj
libfdk-aac.so.2:_Z17processDrcSubbandP16DRC_GAIN_DECODERiiiiiiPPiS2_
libfdk-aac.so.2:_Z17pvcDecodeTimeSlotP15PVC_STATIC_DATAP16PVC_DYNAMIC_DATAPPiS4_iiiS3_S3_
libfdk-aac.so.2:_Z17sumUpCplxPow2Dim2PKPK8FIXP_DPKiiPiiiii
libfdk-aac.so.2:_Z17transportDec_Open14TRANSPORT_TYPEjj
libfdk-aac.so.2:_Z17transportEnc_InitP12TRANSPORTENCPhi14TRANSPORT_TYPEP12CODER_CONFIGj
libfdk-aac.so.2:_Z17transportEnc_OpenPP12TRANSPORTENC
libfdk-aac.so.2:_Z18CConcealment_ApplyP16CConcealmentInfoP22CAacDecoderChannelInfoP28CAacDecoderStaticChannelInfoPK16SamplingRateInfoihij
libfdk-aac.so.2:_Z18CConcealment_StoreP16CConcealmentInfoP22CAacDecoderChannelInfoP28CAacDecoderStaticChannelInfo
libfdk-aac.so.2:_Z18CLpd_FAC_GetMemoryP22CAacDecoderChannelInfoPhPi
libfdk-aac.so.2:_Z18CRvlc_ElementCheckPP22CAacDecoderChannelInfoPP28CAacDecoderStaticChannelInfoji
libfdk-aac.so.2:_Z18FDK_MpegsEnc_ClosePP11MPS_ENCODER
libfdk-aac.so.2:_Z18FDKaacEnc_PsyClosePP12PSY_INTERNALPP7PSY_OUT
libfdk-aac.so.2:_Z18FDKaacEnc_QCOutNewPP6QC_OUTiiiPh
libfdk-aac.so.2:_Z18FDKaacEnc_bitCountPKsiiPi
libfdk-aac.so.2:_Z18FDKcalcScaleFactorPKiS0_i
libfdk-aac.so.2:_Z18FDKdecorrelateInitP10DECORR_DECi15FDK_DECORR_TYPE15FDK_DUCKER_TYPEiiiiii
libfdk-aac.so.2:_Z18FDKdecorrelateOpenP10DECORR_DECPii
libfdk-aac.so.2:_Z18FDKsbrEnc_AddRightPiS_i
libfdk-aac.so.2:_Z18FDKsbrEnc_PSEncodeP11T_PS_ENCODEP8T_PS_OUTPhjPA2_A2_Piii
libfdk-aac.so.2:_Z18FreeAACdynamic_RAMPPi
libfdk-aac.so.2:_Z18FreeAnaQmfStates16PPi
libfdk-aac.so.2:_Z18FreeAnaQmfStates24PPi
libfdk-aac.so.2:_Z18FreeAnaQmfStates32PPi
libfdk-aac.so.2:_Z18FreePcmDmxInstancePP16PCM_DMX_INSTANCE
libfdk-aac.so.2:_Z18FreeQmfSlotsImag16PPPi
libfdk-aac.so.2:_Z18FreeQmfSlotsImag32PPPi
libfdk-aac.so.2:_Z18FreeQmfSlotsReal16PPPi
libfdk-aac.so.2:_Z18FreeQmfSlotsReal32PPPi
libfdk-aac.so.2:_Z18FreeRam_SbrChannelPP11SBR_CHANNEL
libfdk-aac.so.2:_Z18FreeRam_SbrDecoderPP20SBR_DECODER_INSTANCE
libfdk-aac.so.2:_Z18FreeRam_SbrElementPP11SBR_ELEMENT
libfdk-aac.so.2:_Z18FreeRam_SbrEncoderPP11SBR_ENCODER
libfdk-aac.so.2:_Z18GetRam_ParamStereoi
libfdk-aac.so.2:_Z18GetWorkBufferCore1i
libfdk-aac.so.2:_Z18GetWorkBufferCore2i
libfdk-aac.so.2:_Z18GetWorkBufferCore5i
libfdk-aac.so.2:_Z18GetWorkBufferCore6i
libfdk-aac.so.2:_Z18QmfTransposerApplyP13hbeTransposerPPiS2_iS2_S2_PA64_iS4_iiiS1_iii23KEEP_STATES_SYNCED_MODE
libfdk-aac.so.2:_Z18QmfTransposerCloseP13hbeTransposer
libfdk-aac.so.2:_Z18aacDecoder_drcInitP8CDrcInfo
libfdk-aac.so.2:_Z18aacenc_SscCallbackPvP13FDK_BITSTREAM17AUDIO_OBJECT_TYPEiiiiiihPh
libfdk-aac.so.2:_Z18addWeightedCplxVecPKP8FIXP_DPKPKiPKPKS_S4_S8_iPiiPKhiii
libfdk-aac.so.2:_Z18adtsRead_CrcEndRegP11STRUCT_ADTSP13FDK_BITSTREAMi
libfdk-aac.so.2:_Z18fixp_truncateToIntii
libfdk-aac.so.2:_Z18initDrcGainBuffersiP16DRC_GAIN_BUFFERS
libfdk-aac.so.2:_Z18resetLppTransposerP13SBR_LPP_TRANShPhhS1_hhj
libfdk-aac.so.2:_Z18transportDec_ClosePP12TRANSPORTDEC
libfdk-aac.so.2:_Z18transportEnc_ClosePP12TRANSPORTENC
libfdk-aac.so.2:_Z19Acelp_PreProcessingPiS_S_S_S_S_iS_iii
libfdk-aac.so.2:_Z19CAacDecoder_FreeMemP20AAC_DECODER_INSTANCEi
libfdk-aac.so.2:_Z19CLpd_FAC_Acelp2MdctP6mdct_tPiS1_PKsiS1_iiiiPK8FIXP_SPKiPsiP15CAcelpStaticMemiiihii
libfdk-aac.so.2:_Z19CLpd_FAC_Mdct2AcelpP6mdct_tPiS1_iPsiiiih
libfdk-aac.so.2:_Z19CPns_SetCorrelationP8CPnsDataiii
libfdk-aac.so.2:_Z19CProgramConfig_InitP14CProgramConfig
libfdk-aac.so.2:_Z19CProgramConfig_ReadP14CProgramConfigP13FDK_BITSTREAMj
libfdk-aac.so.2:_Z19D_ACELP_decode_4t64PsiS_
libfdk-aac.so.2:_Z19FDK_QmfDomain_CloseP14FDK_QMF_DOMAIN
libfdk-aac.so.2:_Z19FDKaacEnc_AdjThrNewPP13ADJ_THR_STATEi
libfdk-aac.so.2:_Z19FDKaacEnc_PnsDetectP10PNS_CONFIGP8PNS_DATAiiiPiPKiS3_S3_PsiiiS3_S3_
libfdk-aac.so.2:_Z19FDKaacEnc_PsyOutNewPP7PSY_OUTiiiPh
libfdk-aac.so.2:_Z19FDKaacEnc_QCOutInitPP6QC_OUTiPK15CHANNEL_MAPPING
libfdk-aac.so.2:_Z19FDKaacEnc_TnsDetectP8TNS_DATAPK10TNS_CONFIGP8TNS_INFOiPKiii
libfdk-aac.so.2:_Z19FDKaacEnc_TnsEncodeP8TNS_INFOP8TNS_DATAiPK10TNS_CONFIGiPiii
libfdk-aac.so.2:_Z19FDKaacEnc_calcSfbPeP15PE_CHANNEL_DATAPKiS2_iiiS2_S2_
libfdk-aac.so.2:_Z19FDKdecorrelateApplyP10DECORR_DECPiS1_S1_S1_i
libfdk-aac.so.2:_Z19FDKdecorrelateCloseP10DECORR_DEC
libfdk-aac.so.2:_Z19FreeRam_ParamStereoPP19T_PARAMETRIC_STEREO
libfdk-aac.so.2:_Z19FreeWorkBufferCore1PP16CWorkBufferCore1
libfdk-aac.so.2:_Z19FreeWorkBufferCore2PPi
libfdk-aac.so.2:_Z19FreeWorkBufferCore5PPi
libfdk-aac.so.2:_Z19FreeWorkBufferCore6PPa
libfdk-aac.so.2:_Z19GetQmfOverlapBufferi
libfdk-aac.so.2:_Z19GetRam_aacEnc_QCouti
libfdk-aac.so.2:_Z19Hcr_State_BODY_ONLYP13FDK_BITSTREAMPv
libfdk-aac.so.2:_Z19Pred_lt4_postfilterPi
libfdk-aac.so.2:_Z19PreparePsProcessingP6PS_DECPKPKiS4_i
libfdk-aac.so.2:_Z19QmfTransposerCreatePP13hbeTransposeriii
libfdk-aac.so.2:_Z19QmfTransposerReInitP13hbeTransposerPPhS1_
libfdk-aac.so.2:_Z19SpatialDecSmoothOPDP17spatialDec_structPK23SPATIAL_BS_FRAME_structi
libfdk-aac.so.2:_Z19SpatialDecSynthesisP17spatialDec_structiPPiS2_S1_iPK19FDK_channelMapDescr
libfdk-aac.so.2:_Z19ToggleReadDirectionh
libfdk-aac.so.2:_Z19aacDecoder_drcApplyP8CDrcInfoPvP22CAacDecoderChannelInfoP15CDrcChannelDataPiiii
libfdk-aac.so.2:_Z19aacDecoder_drcResetP8CDrcInfo
libfdk-aac.so.2:_Z19aacEncDefaultConfigP13AACENC_CONFIGP10USER_PARAM
libfdk-aac.so.2:_Z19adtsWrite_CrcEndRegP11STRUCT_ADTSP13FDK_BITSTREAMi
libfdk-aac.so.2:_Z19createLppTransposerP13SBR_LPP_TRANSP19TRANSPOSER_SETTINGSiPhiiiiS3_ijii
libfdk-aac.so.2:_Z19drmRead_CrcStartRegP10STRUCT_DRMP13FDK_BITSTREAMi
libfdk-aac.so.2:_Z19getSamplingRateInfoP16SamplingRateInfojjj
libfdk-aac.so.2:_Z19getScalefactorShortPKsi
libfdk-aac.so.2:_Z19initActiveDrcOffsetP16DRC_GAIN_DECODER
libfdk-aac.so.2:_Z19resetFreqBandTablesP15SBR_HEADER_DATAj
libfdk-aac.so.2:_Z19sbrDecoder_drcApplyP18SBRDEC_DRC_CHANNELPPiS2_iS1_
libfdk-aac.so.2:_Z19scaleValuesSaturatePiPKiii
libfdk-aac.so.2:_Z19scaleValuesSaturatePiii
libfdk-aac.so.2:_Z19scaleValuesSaturatePsPKiii
libfdk-aac.so.2:_Z19scaleValuesSaturatePsPKsii
libfdk-aac.so.2:_Z19scaleValuesSaturatePsii
libfdk-aac.so.2:_Z19transportDec_GetAscP12TRANSPORTDECjP21CSAudioSpecificConfig
libfdk-aac.so.2:_Z20Acelp_PostProcessingPiS_S_S_iii
libfdk-aac.so.2:_Z20CChannelElement_ReadP13FDK_BITSTREAMPP22CAacDecoderChannelInfoPP28CAacDecoderStaticChannelInfo17AUDIO_OBJECT_TYPEP16SamplingRateInfojjjhaP12TRANSPORTDEC
libfdk-aac.so.2:_Z20CJointStereo_ApplyISPP22CAacDecoderChannelInfoPKsPKhii
libfdk-aac.so.2:_Z20CJointStereo_ApplyMSPP22CAacDecoderChannelInfoPP28CAacDecoderStaticChannelInfoPiS5_PsS6_S6_S6_PKsPKhiiiiS5_S6_i
libfdk-aac.so.2:_Z20CProgramConfig_ResetP14CProgramConfig
libfdk-aac.so.2:_Z20FDK_MetadataEnc_InitP20FDK_METADATA_ENCODERiiijjj12CHANNEL_MODE13CHANNEL_ORDER
libfdk-aac.so.2:_Z20FDK_MetadataEnc_OpenPP20FDK_METADATA_ENCODERj
libfdk-aac.so.2:_Z20FDK_MpegsEnc_ProcessP11MPS_ENCODERPsiP18AACENC_EXT_PAYLOAD
libfdk-aac.so.2:_Z20FDKaacEnc_AdjThrInitP13ADJ_THR_STATEiiPK15CHANNEL_MAPPINGiii18AACENC_BITRES_MODEiii
libfdk-aac.so.2:_Z20FDKaacEnc_DownsampleP11DOWNSAMPLERPsiS1_Pi
libfdk-aac.so.2:_Z20FDKaacEnc_codeValuesPsiiP13FDK_BITSTREAM
libfdk-aac.so.2:_Z20FDKcalcPbScaleFactorPKPK8FIXP_DPKPKhPiiii
libfdk-aac.so.2:_Z20FDKsbrEnc_AddVecLeftPiS_S_i
libfdk-aac.so.2:_Z20FDKsbrEnc_DownsampleP11SBR_ENCODERPsjjPjPhi
libfdk-aac.so.2:_Z20FreeQmfOverlapBufferPPi
libfdk-aac.so.2:_Z20FreeRam_aacEnc_QCoutPP6QC_OUT
libfdk-aac.so.2:_Z20GetCpePersistentDatai
libfdk-aac.so.2:_Z20GetRam_SbrDecChanneli
libfdk-aac.so.2:_Z20GetRam_SbrDecElementi
libfdk-aac.so.2:_Z20GetRam_Sbr_guideScfbi
libfdk-aac.so.2:_Z20GetRam_aacEnc_PsyOuti
libfdk-aac.so.2:_Z20SpatialDecApplyPhaseP17spatialDec_structsi
libfdk-aac.so.2:_Z20aacDecoder_drcEpilogP8CDrcInfoP13FDK_BITSTREAMPP28CAacDecoderStaticChannelInfohPhi
libfdk-aac.so.2:_Z20aacDecoder_drcPrologP8CDrcInfoP13FDK_BITSTREAMPP28CAacDecoderStaticChannelInfohPhi
libfdk-aac.so.2:_Z20adtsRead_CrcStartRegP11STRUCT_ADTSP13FDK_BITSTREAMi
libfdk-aac.so.2:_Z20calculateSbrEnvelopeP16QMF_SCALE_FACTORP22SBR_CALCULATE_ENVELOPEP15SBR_HEADER_DATAP14SBR_FRAME_DATAP16PVC_DYNAMIC_DATAPPiSA_iS9_ji
libfdk-aac.so.2:_Z20imdct_copy_ov_and_nrP6mdct_tPii
libfdk-aac.so.2:_Z20initSbrPrevFrameDataP19SBR_PREV_FRAME_DATAi
libfdk-aac.so.2:_Z20nearest_neighbor_2D8PiS_
libfdk-aac.so.2:_Z20qmfAnalysisFilteringP15QMF_FILTER_BANKPPiS2_P16QMF_SCALE_FACTORPKiiiS1_
libfdk-aac.so.2:_Z20qmfAnalysisFilteringP15QMF_FILTER_BANKPPiS2_P16QMF_SCALE_FACTORPKsiiS1_
libfdk-aac.so.2:_Z20qmfGetOutScalefactorP15QMF_FILTER_BANK
libfdk-aac.so.2:_Z20resetSbrEnvelopeCalcP22SBR_CALCULATE_ENVELOPE
libfdk-aac.so.2:_Z20sbrGetChannelElementP15SBR_HEADER_DATAP14SBR_FRAME_DATAS2_P19SBR_PREV_FRAME_DATAhP13FDK_BITSTREAMP6PS_DECji
libfdk-aac.so.2:_Z20transportEnc_GetConfP12TRANSPORTENCP12CODER_CONFIGP13FDK_BITSTREAMPj
libfdk-aac.so.2:_Z21CArco_DecodeArithDataP9CArcoDataP13FDK_BITSTREAMPiiii
libfdk-aac.so.2:_Z21CConcealment_GetDelayP14CConcealParams
libfdk-aac.so.2:_Z21CConcealment_GetStateP16CConcealmentInfo
libfdk-aac.so.2:_Z21CConcealment_TDFadingiPP28CAacDecoderStaticChannelInfoiPiS2_
libfdk-aac.so.2:_Z21CLpc_SynthesisLatticePiiiiiPKiiS_
libfdk-aac.so.2:_Z21CLpc_SynthesisLatticePiiiiiPKsiS_
libfdk-aac.so.2:_Z21CLpd_RenderTimeSignalP28CAacDecoderStaticChannelInfoP22CAacDecoderChannelInfoPiiP16SamplingRateInfojijj
libfdk-aac.so.2:_Z21CPns_UpdateNoiseStateP8CPnsDataPiS1_
libfdk-aac.so.2:_Z21CarryBitToBranchValuehjPjS_
libfdk-aac.so.2:_Z21CreateStreamMuxConfigP11LATM_STREAMP13FDK_BITSTREAMiP13CSTpCallBacks
libfdk-aac.so.2:_Z21FDK_MetadataEnc_ClosePP20FDK_METADATA_ENCODER
libfdk-aac.so.2:_Z21FDK_MpegsEnc_GetDelayP11MPS_ENCODER
libfdk-aac.so.2:_Z21FDK_QmfDomain_FreeMemP14FDK_QMF_DOMAIN
libfdk-aac.so.2:_Z21FDK_QmfDomain_GetSlotP17FDK_QMF_DOMAIN_INiiiPiS1_i
libfdk-aac.so.2:_Z21FDKaacEnc_AdjThrClosePP13ADJ_THR_STATE
libfdk-aac.so.2:_Z21FDKaacEnc_GetPnsParamP11NOISEPARAMSiiiPKiPiii
libfdk-aac.so.2:_Z21FDKaacEnc_calcSfbDistPKiPsiii
libfdk-aac.so.2:_Z21FDKaacEnc_countValuesPsii
libfdk-aac.so.2:_Z21FDKaacEnc_dynBitCountP13BITCNTR_STATEPKsPKjPKiiiiiS6_P12SECTION_DATAS6_S6_S6_j
libfdk-aac.so.2:_Z21FDKaacEnc_noiseDetectPiS_iPKiPsP11NOISEPARAMSS2_
libfdk-aac.so.2:_Z21FDKaacEnc_psyMainInitP12PSY_INTERNAL17AUDIO_OBJECT_TYPEP15CHANNEL_MAPPINGiiiiiiiijj
libfdk-aac.so.2:_Z21FDKcalcCorrelationVecPiPKiS1_S1_i
libfdk-aac.so.2:_Z21FDKcalcScaleFactorDPKPK8FIXP_DPKii
libfdk-aac.so.2:_Z21FDKhybridAnalysisInitP18FDK_ANA_HYB_FILTER15FDK_HYBRID_MODEiii
libfdk-aac.so.2:_Z21FDKhybridAnalysisOpenP18FDK_ANA_HYB_FILTERPijS1_j
libfdk-aac.so.2:_Z21FDKsbrEnc_AddVecRightPiS_S_i
libfdk-aac.so.2:_Z21FDKsbrEnc_UpdateHiResPhPiS_iS0_
libfdk-aac.so.2:_Z21FDKsbrEnc_UpdateLoResPhPiS_i
libfdk-aac.so.2:_Z21FreeCpePersistentDataPP17CpePersistentData
libfdk-aac.so.2:_Z21FreeRam_SbrDecChannelPP11SBR_CHANNEL
libfdk-aac.so.2:_Z21FreeRam_SbrDecElementPP19SBR_DECODER_ELEMENT
libfdk-aac.so.2:_Z21FreeRam_Sbr_guideScfbPPh
libfdk-aac.so.2:_Z21FreeRam_aacEnc_PsyOutPP7PSY_OUT
libfdk-aac.so.2:_Z21Get41SbrQmfTransposerP13hbeTransposer
libfdk-aac.so.2:_Z21GetCplxPredictionDatai
libfdk-aac.so.2:_Z21GetQmfOverlapBuffer16i
libfdk-aac.so.2:_Z21GetQmfOverlapBuffer32i
libfdk-aac.so.2:_Z21GetQmfWorkBufferCore1i
libfdk-aac.so.2:_Z21GetQmfWorkBufferCore3i
libfdk-aac.so.2:_Z21GetQmfWorkBufferCore4i
libfdk-aac.so.2:_Z21GetQmfWorkBufferCore6i
libfdk-aac.so.2:_Z21GetQmfWorkBufferCore7i
libfdk-aac.so.2:_Z21GetRam_SbrDynamic_RAMi
libfdk-aac.so.2:_Z21GetRam_Sbr_envIBufferiPh
libfdk-aac.so.2:_Z21GetRam_Sbr_envRBufferiPh
libfdk-aac.so.2:_Z21GetRam_Sbr_envYBufferi
libfdk-aac.so.2:_Z21GetRam_Sbr_envYBufferiPh
libfdk-aac.so.2:_Z21GetRam_Sbr_signMatrixi
libfdk-aac.so.2:_Z21GetRam_Sbr_v_k_masteri
libfdk-aac.so.2:_Z21GetRam_aacEnc_QCstatei
libfdk-aac.so.2:_Z21GetRequiredMemDrcInfov
libfdk-aac.so.2:_Z21HcrMuteErroneousLinesP10CErHcrInfo
libfdk-aac.so.2:_Z21SpatialDecDecodeFrameP17spatialDec_structP23SPATIAL_BS_FRAME_struct
libfdk-aac.so.2:_Z21SpatialDecQMFAnalysisP17spatialDec_structPKiiiPPiS4_i
libfdk-aac.so.2:_Z21StatisticalEstimationP22CAacDecoderChannelInfo
libfdk-aac.so.2:_Z21aacDecoder_drcDisableP8CDrcInfo
libfdk-aac.so.2:_Z21aacDecoder_drcGetInfoP8CDrcInfoPaS1_
libfdk-aac.so.2:_Z21adifRead_DecodeHeaderP11CAdifHeaderP14CProgramConfigP13FDK_BITSTREAM
libfdk-aac.so.2:_Z21adtsRead_DecodeHeaderP11STRUCT_ADTSP21CSAudioSpecificConfigP13FDK_BITSTREAMi
libfdk-aac.so.2:_Z21adtsWrite_CrcStartRegP11STRUCT_ADTSP13FDK_BITSTREAMi
libfdk-aac.so.2:_Z21createSbrEnvelopeCalcP22SBR_CALCULATE_ENVELOPEP15SBR_HEADER_DATAij
libfdk-aac.so.2:_Z21deleteSbrEnvelopeCalcP22SBR_CALCULATE_ENVELOPE
libfdk-aac.so.2:_Z21drcDec_readUniDrcGainP13FDK_BITSTREAMP14UNI_DRC_CONFIGiiP12UNI_DRC_GAIN
libfdk-aac.so.2:_Z21fdkCallocMatrix1D_intjj14MEMORY_SECTION
libfdk-aac.so.2:_Z21fdkCallocMatrix2D_intjjj14MEMORY_SECTION
libfdk-aac.so.2:_Z21fdkCallocMatrix3D_intjjjj14MEMORY_SECTION
libfdk-aac.so.2:_Z21fdk_sacenc_delay_InitP5DELAYiiii
libfdk-aac.so.2:_Z21fdk_sacenc_delay_OpenPP5DELAY
libfdk-aac.so.2:_Z21fdk_sacenc_initTtoBoxP9T_TTO_BOXPK16T_TTO_BOX_CONFIGPh
libfdk-aac.so.2:_Z21initSlotBasedRotationP6PS_DECii
libfdk-aac.so.2:_Z21qmfSynthesisFilteringP15QMF_FILTER_BANKPPiS2_PK16QMF_SCALE_FACTORiPsiS1_
libfdk-aac.so.2:_Z21qmfSynthesisFilteringP15QMF_FILTER_BANKPPiS2_PK16QMF_SCALE_FACTORiS1_iS1_
libfdk-aac.so.2:_Z21rescaleSubbandSamplesPPiS0_iiiii
libfdk-aac.so.2:_Z21sbrdecDownSampleLoResPhhS_h
libfdk-aac.so.2:_Z21sbrdecUpdateFreqScalePhS_jP15SBR_HEADER_DATAj
libfdk-aac.so.2:_Z21scaleValuesWithFactorPiiii
libfdk-aac.so.2:_Z21selectDrcCoefficientsP14UNI_DRC_CONFIGi
libfdk-aac.so.2:_Z21selectDrcInstructionsP14UNI_DRC_CONFIGi
libfdk-aac.so.2:_Z21transportDec_CrcCheckP12TRANSPORTDEC
libfdk-aac.so.2:_Z21transportDec_FillDataP12TRANSPORTDECPhjPji
libfdk-aac.so.2:_Z21transportDec_SetParamP12TRANSPORTDEC11TPDEC_PARAMi
libfdk-aac.so.2:_Z21transportEnc_GetFrameP12TRANSPORTENCPi
libfdk-aac.so.2:_Z21transportEnc_writeASCP13FDK_BITSTREAMP12CODER_CONFIGP13CSTpCallBacks
libfdk-aac.so.2:_Z21transportEnc_writePCEP13FDK_BITSTREAM12CHANNEL_MODEiiiiij
libfdk-aac.so.2:_Z22CAacDecoder_AncDataGetP8CAncDataiPPhPi
libfdk-aac.so.2:_Z22CBlock_FrequencyToTimeP28CAacDecoderStaticChannelInfoP22CAacDecoderChannelInfoPisiS3_iji
libfdk-aac.so.2:_Z22CBlock_ReadSectionDataP13FDK_BITSTREAMP22CAacDecoderChannelInfoPK16SamplingRateInfoj
libfdk-aac.so.2:_Z22CChannelElement_DecodePP22CAacDecoderChannelInfoPP28CAacDecoderStaticChannelInfoP16SamplingRateInfojji
libfdk-aac.so.2:_Z22CConcealment_GetMethodP14CConcealParams
libfdk-aac.so.2:_Z22CConcealment_SetParamsP14CConcealParamsiiiii
libfdk-aac.so.2:_Z22CLpdChannelStream_ReadP13FDK_BITSTREAMP22CAacDecoderChannelInfoP28CAacDecoderStaticChannelInfoPK16SamplingRateInfoj
libfdk-aac.so.2:_Z22CProgramConfig_ComparePK14CProgramConfigS1_
libfdk-aac.so.2:_Z22CProgramConfig_IsValidPK14CProgramConfig
libfdk-aac.so.2:_Z22Drm_xHEAACStaticConfigP21CSAudioSpecificConfigP13FDK_BITSTREAMiP13CSTpCallBacks
libfdk-aac.so.2:_Z22FDK_DRC_Generator_CalcP8DRC_COMPPKsjiiiiiiiiiiPiS3_
libfdk-aac.so.2:_Z22FDK_DRC_Generator_OpenPP8DRC_COMP
libfdk-aac.so.2:_Z22FDKaacEnc_SpreadingMaxiPKiS0_Pi
libfdk-aac.so.2:_Z22FDKaacEnc_initSfbTableiiiPiS_
libfdk-aac.so.2:_Z22FDKaacEnc_lookUpPnsUseiiii
libfdk-aac.so.2:_Z22FDKaacEnc_prepareSfbPeP15PE_CHANNEL_DATAPKiS2_S2_S2_iii
libfdk-aac.so.2:_Z22FDKaacEnc_updateBitresP15CHANNEL_MAPPINGP8QC_STATEPP6QC_OUT
libfdk-aac.so.2:_Z22FDKhybridAnalysisApplyP18FDK_ANA_HYB_FILTERPKiS2_PiS3_
libfdk-aac.so.2:_Z22FDKhybridAnalysisCloseP18FDK_ANA_HYB_FILTER
libfdk-aac.so.2:_Z22FDKhybridSynthesisInitP18FDK_SYN_HYB_FILTER15FDK_HYBRID_MODEii
libfdk-aac.so.2:_Z22FDKsbrEnc_InitPSEncodeP11T_PS_ENCODE8PS_BANDSi
libfdk-aac.so.2:_Z22FDKsbrEnc_codeEnvelopePaPK8FREQ_RESP17SBR_CODE_ENVELOPEPiiiii
libfdk-aac.so.2:_Z22FreeCplxPredictionDataPP19CCplxPredictionData
libfdk-aac.so.2:_Z22FreeQmfOverlapBuffer16PPi
libfdk-aac.so.2:_Z22FreeQmfOverlapBuffer32PPi
libfdk-aac.so.2:_Z22FreeQmfWorkBufferCore1PPi
libfdk-aac.so.2:_Z22FreeQmfWorkBufferCore3PPi
libfdk-aac.so.2:_Z22FreeQmfWorkBufferCore4PPi
libfdk-aac.so.2:_Z22FreeQmfWorkBufferCore6PPi
libfdk-aac.so.2:_Z22FreeQmfWorkBufferCore7PPi
libfdk-aac.so.2:_Z22FreeRam_SbrDynamic_RAMPPi
libfdk-aac.so.2:_Z22FreeRam_Sbr_envYBufferPPi
libfdk-aac.so.2:_Z22FreeRam_Sbr_signMatrixPPi
libfdk-aac.so.2:_Z22FreeRam_Sbr_v_k_masterPPh
libfdk-aac.so.2:_Z22FreeRam_aacEnc_QCstatePP8QC_STATE
libfdk-aac.so.2:_Z22GetRam_Sbr_quotaMatrixi
libfdk-aac.so.2:_Z22GetRequiredMemArcoDatav
libfdk-aac.so.2:_Z22SpatialDecCloseBsFrameP23SPATIAL_BS_FRAME_struct
libfdk-aac.so.2:_Z22SpatialDecDecodeHeaderP17spatialDec_structP25T_SPATIAL_SPECIFIC_CONFIG
libfdk-aac.so.2:_Z22SpatialDecReshapeBBEnvP17spatialDec_structPK23SPATIAL_BS_FRAME_structi
libfdk-aac.so.2:_Z22aacDecoder_drcSetParamP8CDrcInfo16AACDEC_DRC_PARAMi
libfdk-aac.so.2:_Z22adifWrite_EncodeHeaderP9ADIF_INFOP13FDK_BITSTREAMi
libfdk-aac.so.2:_Z22adtsWrite_EncodeHeaderP11STRUCT_ADTSP13FDK_BITSTREAMii
libfdk-aac.so.2:_Z22cplx_cplxScalarProductP8FIXP_DPKPKPKS_S4_iiPiiiii
libfdk-aac.so.2:_Z22deriveDrcChannelGroupsiiPKaPK20DUCKING_MODIFICATIONPhPaS5_PS1_
libfdk-aac.so.2:_Z22fdk_sacenc_applyTtoBoxP9T_TTO_BOXiiiPKPK8FIXP_DPKS5_PaPhS6_S7_iPiS8_
libfdk-aac.so.2:_Z22fdk_sacenc_delay_ClosePP5DELAY
libfdk-aac.so.2:_Z22imdct_adapt_parametersP6mdct_tPiS1_iPK8FIXP_SPKi
libfdk-aac.so.2:_Z22initParameterSmoothingP17spatialDec_struct
libfdk-aac.so.2:_Z22qmfSynPrototypeFirSlotP15QMF_FILTER_BANKPiS1_Psi
libfdk-aac.so.2:_Z22qmfSynPrototypeFirSlotP15QMF_FILTER_BANKPiS1_S1_i
libfdk-aac.so.2:_Z22transportDec_CrcEndRegP12TRANSPORTDECi
libfdk-aac.so.2:_Z22transportDec_GetFormatP12TRANSPORTDEC
libfdk-aac.so.2:_Z22transportEnc_CrcEndRegP12TRANSPORTENCi
libfdk-aac.so.2:_Z22transportEnc_LatmWriteP11LATM_STREAMP13FDK_BITSTREAMiiP13CSTpCallBacks
libfdk-aac.so.2:_Z22transportEnc_Latm_InitP11LATM_STREAMP13FDK_BITSTREAMP12CODER_CONFIGj14TRANSPORT_TYPEP13CSTpCallBacks
libfdk-aac.so.2:_Z23BuildAdaptiveExcitationPsPisiiiS0_
libfdk-aac.so.2:_Z23CAacDecoder_AncDataInitP8CAncDataPhi
libfdk-aac.so.2:_Z23CAacDecoder_DecodeFrameP20AAC_DECODER_INSTANCEjPiii
libfdk-aac.so.2:_Z23CAacDecoder_SyncQmfModeP20AAC_DECODER_INSTANCE
libfdk-aac.so.2:_Z23CBlock_ReadSpectralDataP13FDK_BITSTREAMP22CAacDecoderChannelInfoPK16SamplingRateInfoj
libfdk-aac.so.2:_Z23CLpd_AdaptLowFreqDeemphPiiS_i
libfdk-aac.so.2:_Z23FDK_DRC_Generator_ClosePP8DRC_COMP
libfdk-aac.so.2:_Z23FDK_MetadataEnc_ProcessP20FDK_METADATA_ENCODERPsjiPK15AACENC_MetaDataPP18AACENC_EXT_PAYLOADPjPi
libfdk-aac.so.2:_Z23FDK_MpegsEnc_GetLibInfoP8LIB_INFO
libfdk-aac.so.2:_Z23FDK_QmfDomain_ConfigureP14FDK_QMF_DOMAIN
libfdk-aac.so.2:_Z23FDKaacEnc_AdjustBitrateP8QC_STATEP15CHANNEL_MAPPINGPiiii
libfdk-aac.so.2:_Z23FDKaacEnc_QCMainPrepareP12ELEMENT_INFOP11ATS_ELEMENTP15PSY_OUT_ELEMENTP14QC_OUT_ELEMENT17AUDIO_OBJECT_TYPEja
libfdk-aac.so.2:_Z23FDKaacEnc_peCalculationP7PE_DATAPKPK15PSY_OUT_CHANNELPKP14QC_OUT_CHANNELPK9TOOLSINFOP11ATS_ELEMENTi
libfdk-aac.so.2:_Z23FDKaacEnc_psyInitStatesP12PSY_INTERNALP10PSY_STATIC17AUDIO_OBJECT_TYPE
libfdk-aac.so.2:_Z23FDKhybridSynthesisApplyP18FDK_SYN_HYB_FILTERPKiS2_PiS3_
libfdk-aac.so.2:_Z23FDKsbrEnc_Shellsort_intPii
libfdk-aac.so.2:_Z23FDKsbrEnc_frameSplitterPPiS_P22SBR_TRANSIENT_DETECTORPhS3_iiiiiS_
libfdk-aac.so.2:_Z23FreeRam_Sbr_quotaMatrixPPi
libfdk-aac.so.2:_Z23GetRam_TransportDecoderi
libfdk-aac.so.2:_Z23GetRam_TransportEncoderi
libfdk-aac.so.2:_Z23GetRam_aacEnc_BitLookUpiPh
libfdk-aac.so.2:_Z23GetRam_aacEnc_PsyStatici
libfdk-aac.so.2:_Z23GetRam_aacEnc_QCchanneliPh
libfdk-aac.so.2:_Z23GetRam_aacEnc_QCelementi
libfdk-aac.so.2:_Z23HcrGetABitFromBitstreamP13FDK_BITSTREAMiPiS1_h
libfdk-aac.so.2:_Z23PredictiveInterpolationP22CAacDecoderChannelInfoP28CAacDecoderStaticChannelInfo
libfdk-aac.so.2:_Z23SpatialDecCreateBsFrameP23SPATIAL_BS_FRAME_structP11BS_LL_STATE
libfdk-aac.so.2:_Z23SpatialDecSmoothM1andM2P17spatialDec_structPK23SPATIAL_BS_FRAME_structi
libfdk-aac.so.2:_Z23adifWrite_GetHeaderBitsP9ADIF_INFO
libfdk-aac.so.2:_Z23adtsWrite_GetHeaderBitsP11STRUCT_ADTS
libfdk-aac.so.2:_Z23drcDec_GainDecoder_InitP16DRC_GAIN_DECODER
libfdk-aac.so.2:_Z23drcDec_GainDecoder_OpenPP16DRC_GAIN_DECODER
libfdk-aac.so.2:_Z23drcDec_readUniDrcConfigP13FDK_BITSTREAMP14UNI_DRC_CONFIG
libfdk-aac.so.2:_Z23fdkFreeMatrix1D_alignedPv
libfdk-aac.so.2:_Z23fdkFreeMatrix2D_alignedPPv
libfdk-aac.so.2:_Z23fdk_sacenc_createTtoBoxPP9T_TTO_BOX
libfdk-aac.so.2:_Z23fdk_sacenc_initDCFilterP11T_DC_FILTERj
libfdk-aac.so.2:_Z23getBitstreamElementList17AUDIO_OBJECT_TYPEahhj
libfdk-aac.so.2:_Z23lpc2mdctAndNoiseShapingPiPsiiPKsiS2_i
libfdk-aac.so.2:_Z23pcmLimiter_SetThresholdP9TDLimiteri
libfdk-aac.so.2:_Z23qmfChangeOutScalefactorP15QMF_FILTER_BANKi
libfdk-aac.so.2:_Z23sbrDecoder_drcApplySlotP18SBRDEC_DRC_CHANNELPiS1_iii
libfdk-aac.so.2:_Z23transportDec_GetLibInfoP8LIB_INFO
libfdk-aac.so.2:_Z23transportEnc_GetLibInfoP8LIB_INFO
libfdk-aac.so.2:_Z23transportEnc_GetPCEBits12CHANNEL_MODEii
libfdk-aac.so.2:_Z24AudioSpecificConfig_InitP21CSAudioSpecificConfig
libfdk-aac.so.2:_Z24CBlock_ScaleSpectralDataP22CAacDecoderChannelInfohP16SamplingRateInfo
libfdk-aac.so.2:_Z24CLatmDemux_GetNrOfLayersP10CLatmDemuxj
libfdk-aac.so.2:_Z24CLpdChannelStream_DecodeP22CAacDecoderChannelInfoP28CAacDecoderStaticChannelInfoj
libfdk-aac.so.2:_Z24CLpd_ACELP_GetFreeExcMemP15CAcelpStaticMemi
libfdk-aac.so.2:_Z24CTns_ReadDataPresentFlagP13FDK_BITSTREAMP8CTnsData
libfdk-aac.so.2:_Z24CTns_ReadDataPresentUsacP13FDK_BITSTREAMP8CTnsDataS2_PhPK8CIcsInfojji
libfdk-aac.so.2:_Z24E_LPC_f_lsp_a_conversionPsS_Pi
libfdk-aac.so.2:_Z24FDK_MetadataEnc_GetDelayP20FDK_METADATA_ENCODER
libfdk-aac.so.2:_Z24FDK_MpegsEnc_GetDecDelayP11MPS_ENCODER
libfdk-aac.so.2:_Z24FDKaacEnc_BlockSwitchingP23BLOCK_SWITCHING_CONTROLiiPKs
libfdk-aac.so.2:_Z24FDKaacEnc_CalcFormFactorPP14QC_OUT_CHANNELPP15PSY_OUT_CHANNELi
libfdk-aac.so.2:_Z24FDKaacEnc_CodePnsChanneliP10PNS_CONFIGPiS1_S1_S1_
libfdk-aac.so.2:_Z24FDKaacEnc_DistributeBitsP13ADJ_THR_STATEP11ATS_ELEMENTPP15PSY_OUT_CHANNELP7PE_DATAPiS8_iiiiii18AACENC_BITRES_MODE
libfdk-aac.so.2:_Z24FDKaacEnc_PreEchoControlPiiiisS_iS_
libfdk-aac.so.2:_Z24FDKaacEnc_Transform_RealPKsPiiiS1_P6mdct_tiS1_i
libfdk-aac.so.2:_Z24FDKaacEnc_WriteBitstreamP12TRANSPORTENCP15CHANNEL_MAPPINGP6QC_OUTP7PSY_OUTP8QC_STATE17AUDIO_OBJECT_TYPEja
libfdk-aac.so.2:_Z24FDKaacEnc_groupShortDataPiP13SFB_THRESHOLDP10SFB_ENERGYS3_S3_iiPKiS5_S_S_S_iS5_i
libfdk-aac.so.2:_Z24FDKaacEnc_updateFillBitsP15CHANNEL_MAPPINGP8QC_STATEPP12ELEMENT_BITSPP6QC_OUT
libfdk-aac.so.2:_Z24FDKsbrEnc_CreatePSEncodePP11T_PS_ENCODE
libfdk-aac.so.2:_Z24FDKsbrEnc_EnvEncodeFrameP11SBR_ENCODERiPsjPjPhi
libfdk-aac.so.2:_Z24FDKsbrEnc_GetEnvEstDelayP20SBR_EXTRACT_ENVELOPE
libfdk-aac.so.2:_Z24FreeRam_TransportDecoderPP12TRANSPORTDEC
libfdk-aac.so.2:_Z24FreeRam_TransportEncoderPP12TRANSPORTENC
libfdk-aac.so.2:_Z24FreeRam_aacEnc_PsyStaticPP10PSY_STATIC
libfdk-aac.so.2:_Z24FreeRam_aacEnc_QCelementPP14QC_OUT_ELEMENT
libfdk-aac.so.2:_Z24GetAacDecoderChannelInfoi
libfdk-aac.so.2:_Z24GetRam_aacEnc_AacEncoderi
libfdk-aac.so.2:_Z24GetRam_aacEnc_PsyDynamiciPh
libfdk-aac.so.2:_Z24GetRam_aacEnc_PsyElementi
libfdk-aac.so.2:_Z24GetRequiredMemAacDecoderv
libfdk-aac.so.2:_Z24GetRequiredMemRam_ps_decv
libfdk-aac.so.2:_Z24SpatialDecBufferMatricesP17spatialDec_struct
libfdk-aac.so.2:_Z24SpatialDecHybridAnalysisP17spatialDec_structPPiS2_S2_S2_ii
libfdk-aac.so.2:_Z24SpatialDecParseFrameDataP17spatialDec_structP23SPATIAL_BS_FRAME_structP13FDK_BITSTREAMPK25T_SPATIAL_SPECIFIC_CONFIG9UPMIXTYPEi
libfdk-aac.so.2:_Z24drcDec_GainDecoder_ClosePP16DRC_GAIN_DECODER
libfdk-aac.so.2:_Z24fdk_sacenc_applyDCFilterP11T_DC_FILTERPKsPsi
libfdk-aac.so.2:_Z24fdk_sacenc_destroyTtoBoxPP9T_TTO_BOX
libfdk-aac.so.2:_Z24fdk_sacenc_ecDataPairEncP13FDK_BITSTREAMPA23_sPs9DATA_TYPEiiiii
libfdk-aac.so.2:_Z24qmfAnalysisFilteringSlotP15QMF_FILTER_BANKPiS1_PKiiS1_
libfdk-aac.so.2:_Z24qmfAnalysisFilteringSlotP15QMF_FILTER_BANKPiS1_PKsiS1_
libfdk-aac.so.2:_Z24rvlcReadBitFromBitstreamP13FDK_BITSTREAMiPih
libfdk-aac.so.2:_Z24sbrGetSyntheticCodedDataP15SBR_HEADER_DATAP14SBR_FRAME_DATAP13FDK_BITSTREAMj
libfdk-aac.so.2:_Z24transportDec_CrcStartRegP12TRANSPORTDECi
libfdk-aac.so.2:_Z24transportEnc_CrcStartRegP12TRANSPORTENCi
libfdk-aac.so.2:_Z25AudioSpecificConfig_ParseP21CSAudioSpecificConfigP13FDK_BITSTREAMiP13CSTpCallBackshh17AUDIO_OBJECT_TYPE
libfdk-aac.so.2:_Z25CAacDecoder_CtrlCFGChangeP20AAC_DECODER_INSTANCEhaha
libfdk-aac.so.2:_Z25CAacDecoder_GetStreamInfoP20AAC_DECODER_INSTANCE
libfdk-aac.so.2:_Z25CBlock_ReadAcSpectralDataP13FDK_BITSTREAMP22CAacDecoderChannelInfoP28CAacDecoderStaticChannelInfoPK16SamplingRateInfojj
libfdk-aac.so.2:_Z25CProgramConfig_GetDefaultP14CProgramConfigj
libfdk-aac.so.2:_Z25CalculateSpaceAnalysisQmfP15QMF_FILTER_BANKPKiPiS3_
libfdk-aac.so.2:_Z25FDK_QmfDomain_QmfData2HBEP17FDK_QMF_DOMAIN_INPPiS2_
libfdk-aac.so.2:_Z25FDK_QmfDomain_SaveOverlapP17FDK_QMF_DOMAIN_INi
libfdk-aac.so.2:_Z25FDKaacEnc_InitDownsamplerP11DOWNSAMPLERii
libfdk-aac.so.2:_Z25FDKaacEnc_InitElementBitsP8QC_STATEP15CHANNEL_MAPPINGiii
libfdk-aac.so.2:_Z25FDKsbrEnc_DestroyPSEncodePP11T_PS_ENCODE
libfdk-aac.so.2:_Z25FDKsbrEnc_Shellsort_fractPii
libfdk-aac.so.2:_Z25FDKsbrEnc_UpdateFreqScalePhPiiiii
libfdk-aac.so.2:_Z25FDKsbrEnc_transientDetectP22SBR_TRANSIENT_DETECTORPPiS1_Phiiii
libfdk-aac.so.2:_Z25FreeAacDecoderChannelInfoPP22CAacDecoderChannelInfo
libfdk-aac.so.2:_Z25FreeRam_aacEnc_AacEncoderPP7AAC_ENC
libfdk-aac.so.2:_Z25FreeRam_aacEnc_PsyElementPP11PSY_ELEMENT
libfdk-aac.so.2:_Z25GetRam_aacEnc_ElementBitsi
libfdk-aac.so.2:_Z25GetRam_aacEnc_PsyInternali
libfdk-aac.so.2:_Z25GetRequiredMem_AacEncoderv
libfdk-aac.so.2:_Z25GetxOverBandQmfTransposerP13hbeTransposer
libfdk-aac.so.2:_Z25Hcr_State_BODY_SIGN__BODYP13FDK_BITSTREAMPv
libfdk-aac.so.2:_Z25Hcr_State_BODY_SIGN__SIGNP13FDK_BITSTREAMPv
libfdk-aac.so.2:_Z25SpatialDecApplyM2_Mode212P17spatialDec_structisPPiS2_S2_S2_
libfdk-aac.so.2:_Z25aacDecoder_drcMarkPayloadP8CDrcInfoP13FDK_BITSTREAM23AACDEC_DRC_PAYLOAD_TYPE
libfdk-aac.so.2:_Z25adtsWrite_EndRawDataBlockP11STRUCT_ADTSP13FDK_BITSTREAMPi
libfdk-aac.so.2:_Z25drcDec_GainDecoder_ConfigP16DRC_GAIN_DECODERP14UNI_DRC_CONFIGhPKaPKh
libfdk-aac.so.2:_Z25fdkCallocMatrix1D_alignedjj
libfdk-aac.so.2:_Z25fdkCallocMatrix2D_alignedjjj
libfdk-aac.so.2:_Z25fdk_sacenc_createDCFilterPP11T_DC_FILTER
libfdk-aac.so.2:_Z25fdk_sacenc_getPostGainFDKP11STATIC_GAIN
libfdk-aac.so.2:_Z25fdk_sacenc_spaceTree_InitP10SPACE_TREEPK16SPACE_TREE_SETUPPhi
libfdk-aac.so.2:_Z25fdk_sacenc_spaceTree_OpenPP10SPACE_TREE
libfdk-aac.so.2:_Z25getAddrDirectSignalMaxValP10DECORR_DEC
libfdk-aac.so.2:_Z25qmfInitAnalysisFilterBankP15QMF_FILTER_BANKPiiiiii
libfdk-aac.so.2:_Z25qmfInitAnalysisFilterBankP15QMF_FILTER_BANKPsiiiii
libfdk-aac.so.2:_Z25qmfSynthesisFilteringSlotP15QMF_FILTER_BANKPKiS2_iiPiiS3_
libfdk-aac.so.2:_Z25qmfSynthesisFilteringSlotP15QMF_FILTER_BANKPKiS2_iiPsiPi
libfdk-aac.so.2:_Z25sbrDecoder_drcInitChannelP18SBRDEC_DRC_CHANNEL
libfdk-aac.so.2:_Z25sbrdec_mapToStdSampleRatejj
libfdk-aac.so.2:_Z25selectDownmixInstructionsP14UNI_DRC_CONFIGi
libfdk-aac.so.2:_Z25transportDec_GetBitstreamP12TRANSPORTDECj
libfdk-aac.so.2:_Z25transportDec_InBandConfigP12TRANSPORTDECPhjhS1_jS1_
libfdk-aac.so.2:_Z25transportEnc_GetBitstreamP12TRANSPORTENC
libfdk-aac.so.2:_Z25transportEnc_LatmGetFrameP11LATM_STREAMP13FDK_BITSTREAMPi
libfdk-aac.so.2:_Z26CAacDecoder_ApplyCrossFadePiPS_iii
libfdk-aac.so.2:_Z26CBlock_ReadScaleFactorDataP22CAacDecoderChannelInfoP13FDK_BITSTREAMj
libfdk-aac.so.2:_Z26CChannel_CodebookTableInitP22CAacDecoderChannelInfo
libfdk-aac.so.2:_Z26CProgramConfig_GetPceChMapPK14CProgramConfigPhj
libfdk-aac.so.2:_Z26CalculateSpaceSynthesisQmfP18FDK_QMF_DOMAIN_OUTPKiS2_iPi
libfdk-aac.so.2:_Z26DrmRawSdcAudioConfig_ParseP21CSAudioSpecificConfigP13FDK_BITSTREAMP13CSTpCallBackshh
libfdk-aac.so.2:_Z26FDKaacEnc_AdjustThresholdsP13ADJ_THR_STATEPKP14QC_OUT_ELEMENTP6QC_OUTPKPK15PSY_OUT_ELEMENTiPK15CHANNEL_MAPPING
libfdk-aac.so.2:_Z26FDKaacEnc_CalcBandNrgMSOptPKiS0_PiS1_S0_iS1_S1_iS1_S1_
libfdk-aac.so.2:_Z26FDKaacEnc_QuantizeSpectrumiiiPKiS0_iS0_Psi
libfdk-aac.so.2:_Z26FDKaacEnc_bitresCalcBitFaciiiiiiPK13ADJ_THR_STATEP11ATS_ELEMENTPiS4_
libfdk-aac.so.2:_Z26FDKsbrEnc_InitSbrBitstreamP11COMMON_DATAPhiP11FDK_CRCINFOj
libfdk-aac.so.2:_Z26FDKsbrEnc_TonCorrParamExtrP16SBR_TON_CORR_ESTP9INVF_MODEPiS3_PhS4_PK14SBR_FRAME_INFOS4_S4_i9XPOS_MODEj
libfdk-aac.so.2:_Z26FreeRam_aacEnc_ElementBitsPP12ELEMENT_BITS
libfdk-aac.so.2:_Z26FreeRam_aacEnc_PsyInternalPP12PSY_INTERNAL
libfdk-aac.so.2:_Z26GetRam_Sbr_freqBandTableHIi
libfdk-aac.so.2:_Z26GetRam_Sbr_freqBandTableLOi
libfdk-aac.so.2:_Z26GetRam_Sbr_guideVectorDiffi
libfdk-aac.so.2:_Z26GetRam_Sbr_guideVectorOrigi
libfdk-aac.so.2:_Z26GetRam_aacEnc_BitCntrStatei
libfdk-aac.so.2:_Z26GetRequiredMemAnaQmfStatesv
libfdk-aac.so.2:_Z26GetRequiredMemQmfSlotsImagv
libfdk-aac.so.2:_Z26GetRequiredMemQmfSlotsRealv
libfdk-aac.so.2:_Z26GetRequiredMemRam_PsEncodev
libfdk-aac.so.2:_Z26GetRequiredMemSynQmfStatesv
libfdk-aac.so.2:_Z26SpatialDecCalculateM1andM2P17spatialDec_structiPK23SPATIAL_BS_FRAME_struct
libfdk-aac.so.2:_Z26SpatialDecConcealment_InitP25SpatialDecConcealmentInfoj
libfdk-aac.so.2:_Z26SpatialDecGetResidualIndexP17spatialDec_structi
libfdk-aac.so.2:_Z26SpatialDequantGetCLDValuesiPiS_
libfdk-aac.so.2:_Z26applyDrcLevelNormalizationP8CDrcInfoPiS1_S1_ijjjjj
libfdk-aac.so.2:_Z26drcDec_GainDecoder_ConcealP16DRC_GAIN_DECODERP14UNI_DRC_CONFIGP12UNI_DRC_GAIN
libfdk-aac.so.2:_Z26drcDec_readLoudnessInfoSetP13FDK_BITSTREAMP17LOUDNESS_INFO_SET
libfdk-aac.so.2:_Z26fdk_sacenc_destroyDCFilterPP11T_DC_FILTER
libfdk-aac.so.2:_Z26fdk_sacenc_ecDataSingleEncP13FDK_BITSTREAMPA23_sPs9DATA_TYPEiiiii
libfdk-aac.so.2:_Z26fdk_sacenc_getSpatialFrameP12BSF_INSTANCE17SPATIALFRAME_TYPE
libfdk-aac.so.2:_Z26fdk_sacenc_spaceTree_ApplyP10SPACE_TREEiiiiiPiPKPKP8FIXP_DPKS7_P12SPATIALFRAMEiS1_
libfdk-aac.so.2:_Z26fdk_sacenc_spaceTree_ClosePP10SPACE_TREE
libfdk-aac.so.2:_Z26fdk_sacenc_staticGain_InitP11STATIC_GAINP18STATIC_GAIN_CONFIGPi
libfdk-aac.so.2:_Z26fdk_sacenc_staticGain_OpenPP11STATIC_GAIN
libfdk-aac.so.2:_Z26qmfInitSynthesisFilterBankP15QMF_FILTER_BANKPiiiiii
libfdk-aac.so.2:_Z26transportDec_EndAccessUnitP12TRANSPORTDEC
libfdk-aac.so.2:_Z26transportEnc_EndAccessUnitP12TRANSPORTENCPi
libfdk-aac.so.2:_Z26transportEnc_GetStaticBitsP12TRANSPORTENCi
libfdk-aac.so.2:_Z27CConcealment_GetLastFrameOkP16CConcealmentInfoi
libfdk-aac.so.2:_Z27CConcealment_InitCommonDataP14CConcealParams
libfdk-aac.so.2:_Z27CConcealment_SetAttenuationP14CConcealParamsPKsS2_
libfdk-aac.so.2:_Z27CLatmDemux_GetNrOfSubFramesP10CLatmDemux
libfdk-aac.so.2:_Z27FDK_QmfDomain_GetWorkBufferP17FDK_QMF_DOMAIN_INiPPiS2_
libfdk-aac.so.2:_Z27FDK_QmfDomain_IsInitializedP14FDK_QMF_DOMAIN
libfdk-aac.so.2:_Z27FDKaacEnc_GetMonoStereoMode12CHANNEL_MODE
libfdk-aac.so.2:_Z27FDKsbrEnc_PSEnc_WritePSDataP19T_PARAMETRIC_STEREOP13FDK_BITSTREAM
libfdk-aac.so.2:_Z27FDKsbrEnc_getSbrStopFreqRAWii
libfdk-aac.so.2:_Z27FreeRam_Sbr_freqBandTableHIPPh
libfdk-aac.so.2:_Z27FreeRam_Sbr_freqBandTableLOPPh
libfdk-aac.so.2:_Z27FreeRam_Sbr_guideVectorDiffPPi
libfdk-aac.so.2:_Z27FreeRam_Sbr_guideVectorOrigPPi
libfdk-aac.so.2:_Z27FreeRam_aacEnc_BitCntrStatePP13BITCNTR_STATE
libfdk-aac.so.2:_Z27GetRam_PsQmfStatesSynthesisi
libfdk-aac.so.2:_Z27GetRam_Sbr_detectionVectorsi
libfdk-aac.so.2:_Z27GetRam_aacEnc_PsyOutChanneli
libfdk-aac.so.2:_Z27GetRequiredMemOverlapBufferv
libfdk-aac.so.2:_Z27GetRequiredMemTimeDataFlushv
libfdk-aac.so.2:_Z27SpatialDecConcealment_ApplyP25SpatialDecConcealmentInfoPA28_KaPPaS4_S4_iiaii
libfdk-aac.so.2:_Z27SpatialDecParseMps212ConfigP13FDK_BITSTREAMP25T_SPATIAL_SPECIFIC_CONFIGi17AUDIO_OBJECT_TYPEii
libfdk-aac.so.2:_Z27SpatialDequantGetCLD2ValuesiPi
libfdk-aac.so.2:_Z27drcDec_GainDecoder_SetParamP16DRC_GAIN_DECODER14GAIN_DEC_PARAMi
libfdk-aac.so.2:_Z27fdk_sacenc_frameWindow_InitP13T_FRAMEWINDOWPK20T_FRAMEWINDOW_CONFIG
libfdk-aac.so.2:_Z27fdk_sacenc_getPreGainPtrFDKP11STATIC_GAIN
libfdk-aac.so.2:_Z27fdk_sacenc_onsetDetect_InitP12ONSET_DETECTPK21T_ONSET_DETECT_CONFIGj
libfdk-aac.so.2:_Z27fdk_sacenc_onsetDetect_OpenPP12ONSET_DETECTj
libfdk-aac.so.2:_Z27fdk_sacenc_staticGain_ClosePP11STATIC_GAIN
libfdk-aac.so.2:_Z27sbrDecoder_calculateGainVecPPiS0_iiiS_S_iii
libfdk-aac.so.2:_Z27sbrDecoder_drcUpdateChannelP18SBRDEC_DRC_CHANNEL
libfdk-aac.so.2:_Z27transportDec_GetAuBitsTotalP12TRANSPORTDECj
libfdk-aac.so.2:_Z27transportDec_ReadAccessUnitP12TRANSPORTDECj
libfdk-aac.so.2:_Z27transportEnc_GetChannelModei
libfdk-aac.so.2:_Z28CAacDecoder_PrepareCrossFadePKiPPiiii
libfdk-aac.so.2:_Z28CConcealment_InitChannelDataP16CConcealmentInfoP14CConcealParams18AACDEC_RENDER_MODEi
libfdk-aac.so.2:_Z28CLpd_AcelpPrepareInternalMemPKihhPKsiS2_iP15CAcelpStaticMemiih
libfdk-aac.so.2:_Z28CProgramConfig_LookupElementP14CProgramConfigjjjPhP18AUDIO_CHANNEL_TYPES1_jS1_P14MP4_ELEMENT_IDS4_
libfdk-aac.so.2:_Z28FDK_DRC_Generator_InitializeP8DRC_COMP11DRC_PROFILES1_ij12CHANNEL_MODE13CHANNEL_ORDERh
libfdk-aac.so.2:_Z28FDK_QmfDomain_ClearRequestedP17FDK_QMF_DOMAIN_GC
libfdk-aac.so.2:_Z28FDK_QmfDomain_InitFilterBankP14FDK_QMF_DOMAINj
libfdk-aac.so.2:_Z28FDKaacEnc_DetermineBandWidthii19AACENC_BITRATE_MODEiiPK15CHANNEL_MAPPING12CHANNEL_MODEPi
libfdk-aac.so.2:_Z28FDKaacEnc_InitBlockSwitchingP23BLOCK_SWITCHING_CONTROLi
libfdk-aac.so.2:_Z28FDKaacEnc_InitChannelMapping12CHANNEL_MODE13CHANNEL_ORDERP15CHANNEL_MAPPING
libfdk-aac.so.2:_Z28FDKaacEnc_InitPreEchoControlPiS_iS_S_
libfdk-aac.so.2:_Z28FDKaacEnc_MsStereoProcessingPP8PSY_DATAPP15PSY_OUT_CHANNELPKiPiS7_iiiiS6_
libfdk-aac.so.2:_Z28FDKaacEnc_SyncBlockSwitchingP23BLOCK_SWITCHING_CONTROLS0_ii
libfdk-aac.so.2:_Z28FDKaacEnc_Transform_Real_EldPKsPiiiS1_iS1_iS1_
libfdk-aac.so.2:_Z28FDKaacEnc_writeExtensionDataP12TRANSPORTENCP16QC_OUT_EXTENSIONijj17AUDIO_OBJECT_TYPEa
libfdk-aac.so.2:_Z28FDKhybridAnalysisScaleStatesP18FDK_ANA_HYB_FILTERi
libfdk-aac.so.2:_Z28FDKsbrEnc_frameInfoGeneratorP18SBR_ENVELOPE_FRAMEPhiS1_iPKi
libfdk-aac.so.2:_Z28FDKsbrEnc_getSbrStartFreqRAWii
libfdk-aac.so.2:_Z28FDKsbrEnc_initPsBandNrgScaleP11T_PS_ENCODE
libfdk-aac.so.2:_Z28FreeRam_PsQmfStatesSynthesisPPi
libfdk-aac.so.2:_Z28FreeRam_Sbr_detectionVectorsPPh
libfdk-aac.so.2:_Z28FreeRam_aacEnc_PsyOutChannelPP15PSY_OUT_CHANNEL
libfdk-aac.so.2:_Z28GetRam_Sbr_QmfStatesAnalysisi
libfdk-aac.so.2:_Z28GetRam_aacEnc_PsyInputBufferi
libfdk-aac.so.2:_Z28GetRam_aacEnc_PsyOutElementsi
libfdk-aac.so.2:_Z28GetRequiredMemAACdynamic_RAMv
libfdk-aac.so.2:_Z28GetRequiredMemAnaQmfStates16v
libfdk-aac.so.2:_Z28GetRequiredMemAnaQmfStates24v
libfdk-aac.so.2:_Z28GetRequiredMemAnaQmfStates32v
libfdk-aac.so.2:_Z28GetRequiredMemPcmDmxInstancev
libfdk-aac.so.2:_Z28GetRequiredMemQmfSlotsImag16v
libfdk-aac.so.2:_Z28GetRequiredMemQmfSlotsImag32v
libfdk-aac.so.2:_Z28GetRequiredMemQmfSlotsReal16v
libfdk-aac.so.2:_Z28GetRequiredMemQmfSlotsReal32v
libfdk-aac.so.2:_Z28GetRequiredMemRam_SbrChannelv
libfdk-aac.so.2:_Z28GetRequiredMemRam_SbrDecoderv
libfdk-aac.so.2:_Z28GetRequiredMemRam_SbrElementv
libfdk-aac.so.2:_Z28GetRequiredMemRam_SbrEncoderv
libfdk-aac.so.2:_Z28InvMdctTransformLowDelay_fdkPiiS_S_i
libfdk-aac.so.2:_Z28drcDec_SelectionProcess_InitP26s_drcdec_selection_process
libfdk-aac.so.2:_Z28fdk_sacenc_analysisWindowingiiPiPKPK8FIXP_DPKPKPS0_ii
libfdk-aac.so.2:_Z28fdk_sacenc_delay_SetDmxAlignP5DELAYi
libfdk-aac.so.2:_Z28fdk_sacenc_onsetDetect_ApplyP12ONSET_DETECTiiPKP8FIXP_DPKiiPi
libfdk-aac.so.2:_Z28fdk_sacenc_onsetDetect_ClosePP12ONSET_DETECT
libfdk-aac.so.2:_Z28fdk_sacenc_subband2ParamBand18BOX_SUBBAND_CONFIGi
libfdk-aac.so.2:_Z28fdk_sacenc_writeSpatialFramePhiPiP12BSF_INSTANCE
libfdk-aac.so.2:_Z28transportDec_OutOfBandConfigP12TRANSPORTDECPhjj
libfdk-aac.so.2:_Z28transportEnc_WriteAccessUnitP12TRANSPORTENCiii
libfdk-aac.so.2:_Z29CLatmDemux_GetOtherDataLengthP10CLatmDemux
libfdk-aac.so.2:_Z29FDKaacEnc_CalcSfbMaxScaleSpecPKiS0_Pii
libfdk-aac.so.2:_Z29FDKaacEnc_ChannelElementWriteP12TRANSPORTENCP12ELEMENT_INFOPP14QC_OUT_CHANNELP15PSY_OUT_ELEMENTPP15PSY_OUT_CHANNELj17AUDIO_OBJECT_TYPEaPih
libfdk-aac.so.2:_Z29FDKsbrEnc_InitSbrCodeEnvelopeP17SBR_CODE_ENVELOPEPiiii
libfdk-aac.so.2:_Z29FDKsbrEnc_extractSbrEnvelope1P15SBR_CONFIG_DATAP15SBR_HEADER_DATAP18SBR_BITSTREAM_DATAP11ENV_CHANNELP11COMMON_DATAP17SBR_ENV_TEMP_DATAP19SBR_FRAME_TEMP_DATA
libfdk-aac.so.2:_Z29FDKsbrEnc_extractSbrEnvelope2P15SBR_CONFIG_DATAP15SBR_HEADER_DATAP19T_PARAMETRIC_STEREOP18SBR_BITSTREAM_DATAP11ENV_CHANNELS8_P11COMMON_DATAP17SBR_ENV_TEMP_DATAP19SBR_FRAME_TEMP_DATAi
libfdk-aac.so.2:_Z29FDKsbrEnc_fastTransientDetectP18FAST_TRAN_DETECTORPKPKiS2_iPh
libfdk-aac.so.2:_Z29FDKsbrEnc_initInvFiltDetectorP16SBR_INV_FILT_ESTPiij
libfdk-aac.so.2:_Z29FreeRam_Sbr_QmfStatesAnalysisPPs
libfdk-aac.so.2:_Z29FreeRam_aacEnc_PsyInputBufferPPs
libfdk-aac.so.2:_Z29FreeRam_aacEnc_PsyOutElementsPP15PSY_OUT_ELEMENT
libfdk-aac.so.2:_Z29GetRam_TransportDecoderBufferi
libfdk-aac.so.2:_Z29GetRam_aacEnc_AdjustThresholdi
libfdk-aac.so.2:_Z29GetRam_aacEnc_MergeGainLookUpiPh
libfdk-aac.so.2:_Z29GetRequiredMemRam_ParamStereov
libfdk-aac.so.2:_Z29GetRequiredMemWorkBufferCore1v
libfdk-aac.so.2:_Z29GetRequiredMemWorkBufferCore2v
libfdk-aac.so.2:_Z29GetRequiredMemWorkBufferCore5v
libfdk-aac.so.2:_Z29GetRequiredMemWorkBufferCore6v
libfdk-aac.so.2:_Z29Hcr_State_BODY_SIGN_ESC__BODYP13FDK_BITSTREAMPv
libfdk-aac.so.2:_Z29Hcr_State_BODY_SIGN_ESC__SIGNP13FDK_BITSTREAMPv
libfdk-aac.so.2:_Z29SpatialDecParseSpecificConfigP13FDK_BITSTREAMP25T_SPATIAL_SPECIFIC_CONFIGi17AUDIO_OBJECT_TYPE
libfdk-aac.so.2:_Z29aacDecoder_drcInitChannelDataP15CDrcChannelData
libfdk-aac.so.2:_Z29bitstreamContainsMultibandDrcP14UNI_DRC_CONFIGi
libfdk-aac.so.2:_Z29drcDec_GainDecoder_PreprocessP16DRC_GAIN_DECODERP12UNI_DRC_GAINiss
libfdk-aac.so.2:_Z29fdkCallocMatrix1D_int_alignedjj14MEMORY_SECTION
libfdk-aac.so.2:_Z29fdkCallocMatrix2D_int_alignedjjj14MEMORY_SECTION
libfdk-aac.so.2:_Z29fdk_sacenc_frameWindow_CreatePP13T_FRAMEWINDOW
libfdk-aac.so.2:_Z29fdk_sacenc_getSubbandImagSignv
libfdk-aac.so.2:_Z29fdk_sacenc_onsetDetect_UpdateP12ONSET_DETECTi
libfdk-aac.so.2:_Z29transportDec_GetNrOfSubFramesP12TRANSPORTDEC
libfdk-aac.so.2:_Z29transportEnc_AddOtherDataBitsP12TRANSPORTENCi
libfdk-aac.so.2:_Z30CAacDecoder_SignalInterruptionP20AAC_DECODER_INSTANCE
libfdk-aac.so.2:_Z30CBlock_FrequencyToTimeLowDelayP28CAacDecoderStaticChannelInfoP22CAacDecoderChannelInfoPis
libfdk-aac.so.2:_Z30CLatmDemux_ReadStreamMuxConfigP13FDK_BITSTREAMP10CLatmDemuxP13CSTpCallBacksP21CSAudioSpecificConfigPihh
libfdk-aac.so.2:_Z30CProgramConfig_GetElementTablePK14CProgramConfigP14MP4_ELEMENT_IDiPh
libfdk-aac.so.2:_Z30FDK_MpegsEnc_GetClosestBitRate17AUDIO_OBJECT_TYPE12CHANNEL_MODEjjj
libfdk-aac.so.2:_Z30FDKaacEnc_CheckBandEnergyOptimPKiS0_S0_iPiS1_i
libfdk-aac.so.2:_Z30FDKaacEnc_DetermineEncoderModeP12CHANNEL_MODEi
libfdk-aac.so.2:_Z30FDKaacEnc_EstimateScaleFactorsPP15PSY_OUT_CHANNELPP14QC_OUT_CHANNELiii
libfdk-aac.so.2:_Z30FDKaacEnc_InitPnsConfigurationP10PNS_CONFIGiiiiPKiii
libfdk-aac.so.2:_Z30FDKaacEnc_InitPsyConfigurationiiiiiiiP17PSY_CONFIGURATION7FB_TYPE
libfdk-aac.so.2:_Z30FDKaacEnc_InitTnsConfigurationiiiiiiiP10TNS_CONFIGP17PSY_CONFIGURATIONii
libfdk-aac.so.2:_Z30FDKaacEnc_codeScalefactorDeltaiP13FDK_BITSTREAM
libfdk-aac.so.2:_Z30FDKsbrEnc_AssembleSbrBitstreamP11COMMON_DATAP11FDK_CRCINFOij
libfdk-aac.so.2:_Z30FDKsbrEnc_FindStartAndStopBandiiiiiPiS_
libfdk-aac.so.2:_Z30FDKsbrEnc_InitSbrHuffmanTablesP12SBR_ENV_DATAP17SBR_CODE_ENVELOPES2_7AMP_RES
libfdk-aac.so.2:_Z30FDKsbrEnc_InitTonCorrParamExtriP16SBR_TON_CORR_ESTP15SBR_CONFIG_DATAiiiiij
libfdk-aac.so.2:_Z30FDKsbrEnc_resetInvFiltDetectorP16SBR_INV_FILT_ESTPii
libfdk-aac.so.2:_Z30FreeRam_TransportDecoderBufferPPh
libfdk-aac.so.2:_Z30FreeRam_aacEnc_AdjustThresholdPP13ADJ_THR_STATE
libfdk-aac.so.2:_Z30GetAacDecoderStaticChannelInfoi
libfdk-aac.so.2:_Z30GetRam_Sbr_guideVectorDetectedi
libfdk-aac.so.2:_Z30GetRequiredMemQmfOverlapBufferv
libfdk-aac.so.2:_Z30GetRequiredMemRam_aacEnc_QCoutv
libfdk-aac.so.2:_Z30SpatialDecConcealment_SetParamP25SpatialDecConcealmentInfo21SAC_DEC_CONCEAL_PARAMi
libfdk-aac.so.2:_Z30adtsRead_GetRawDataBlockLengthP11STRUCT_ADTSi
libfdk-aac.so.2:_Z30drcDec_SelectionProcess_CreatePP26s_drcdec_selection_process
libfdk-aac.so.2:_Z30drcDec_SelectionProcess_DeletePP26s_drcdec_selection_process
libfdk-aac.so.2:_Z30fdk_sacenc_delay_SetTimeDomDmxP5DELAYi
libfdk-aac.so.2:_Z30fdk_sacenc_frameWindow_DestroyPP13T_FRAMEWINDOW
libfdk-aac.so.2:_Z30transportDec_GetBufferFullnessP12TRANSPORTDEC
libfdk-aac.so.2:_Z31CLatmDemux_GetFrameLengthInBitsP10CLatmDemuxjj
libfdk-aac.so.2:_Z31FDK_DRC_Generator_getDrcProfileP8DRC_COMP
libfdk-aac.so.2:_Z31FDK_DRC_Generator_setDrcProfileP8DRC_COMP11DRC_PROFILES1_
libfdk-aac.so.2:_Z31FDKaacEnc_CalculateChaosMeasurePiiS_
libfdk-aac.so.2:_Z31FDKaacEnc_CalculateFullTonalityPiS_S_PsiPKii
libfdk-aac.so.2:_Z31FDKsbrEnc_ResetTonCorrParamExtrP16SBR_TON_CORR_ESTiiPhiiPS1_Pii
libfdk-aac.so.2:_Z31FreeAacDecoderStaticChannelInfoPP28CAacDecoderStaticChannelInfo
libfdk-aac.so.2:_Z31FreeRam_Sbr_guideVectorDetectedPPh
libfdk-aac.so.2:_Z31GetRequiredMemCpePersistentDatav
libfdk-aac.so.2:_Z31GetRequiredMemRam_SbrDecChannelv
libfdk-aac.so.2:_Z31GetRequiredMemRam_SbrDecElementv
libfdk-aac.so.2:_Z31GetRequiredMemRam_Sbr_guideScfbv
libfdk-aac.so.2:_Z31GetRequiredMemRam_aacEnc_PsyOutv
libfdk-aac.so.2:_Z31SpatialDecDefaultSpecificConfigP25T_SPATIAL_SPECIFIC_CONFIG17AUDIO_OBJECT_TYPEiiiii
libfdk-aac.so.2:_Z31drcDec_GainDecoder_GetFrameSizeP16DRC_GAIN_DECODER
libfdk-aac.so.2:_Z31drcDec_SelectionProcess_ProcessP26s_drcdec_selection_processP14UNI_DRC_CONFIGP17LOUDNESS_INFO_SETP26s_selection_process_output
libfdk-aac.so.2:_Z31transportDec_GetAuBitsRemainingP12TRANSPORTDECj
libfdk-aac.so.2:_Z32CLatmDemux_ReadPayloadLengthInfoP13FDK_BITSTREAMP10CLatmDemux
libfdk-aac.so.2:_Z32FDK_DRC_Generator_getCompProfileP8DRC_COMP
libfdk-aac.so.2:_Z32FDKaacEnc_FinalizeBitConsumptionP15CHANNEL_MAPPINGP8QC_STATEP6QC_OUTPP14QC_OUT_ELEMENTP12TRANSPORTENC17AUDIO_OBJECT_TYPEja
libfdk-aac.so.2:_Z32FDKsbrEnc_CreateTonCorrParamExtrP16SBR_TON_CORR_ESTi
libfdk-aac.so.2:_Z32FDKsbrEnc_DeleteTonCorrParamExtrP16SBR_TON_CORR_EST
libfdk-aac.so.2:_Z32FDKsbrEnc_InitExtractSbrEnvelopeP20SBR_EXTRACT_ENVELOPEiiiiiijiPhj
libfdk-aac.so.2:_Z32FDKsbrEnc_LSI_divide_scale_fractiii
libfdk-aac.so.2:_Z32FDKsbrEnc_initFrameInfoGeneratorP18SBR_ENVELOPE_FRAMEiiiiPK8FREQ_REShi
libfdk-aac.so.2:_Z32GetRam_aacEnc_AdjThrStateElementi
libfdk-aac.so.2:_Z32GetRequiredMemCplxPredictionDatav
libfdk-aac.so.2:_Z32GetRequiredMemQmfOverlapBuffer16v
libfdk-aac.so.2:_Z32GetRequiredMemQmfOverlapBuffer32v
libfdk-aac.so.2:_Z32GetRequiredMemQmfWorkBufferCore1v
libfdk-aac.so.2:_Z32GetRequiredMemQmfWorkBufferCore3v
libfdk-aac.so.2:_Z32GetRequiredMemQmfWorkBufferCore4v
libfdk-aac.so.2:_Z32GetRequiredMemQmfWorkBufferCore6v
libfdk-aac.so.2:_Z32GetRequiredMemQmfWorkBufferCore7v
libfdk-aac.so.2:_Z32GetRequiredMemRam_SbrDynamic_RAMv
libfdk-aac.so.2:_Z32GetRequiredMemRam_Sbr_envYBufferv
libfdk-aac.so.2:_Z32GetRequiredMemRam_Sbr_signMatrixv
libfdk-aac.so.2:_Z32GetRequiredMemRam_Sbr_v_k_masterv
libfdk-aac.so.2:_Z32GetRequiredMemRam_aacEnc_QCstatev
libfdk-aac.so.2:_Z32drcDec_SelectionProcess_GetParamP26s_drcdec_selection_process19SEL_PROC_USER_PARAM
libfdk-aac.so.2:_Z32drcDec_SelectionProcess_SetParamP26s_drcdec_selection_process19SEL_PROC_USER_PARAMiPi
libfdk-aac.so.2:_Z32fdk_sacenc_delay_GetInfoDmxDelayP5DELAY
libfdk-aac.so.2:_Z32fdk_sacenc_duplicateParameterSetPK12SPATIALFRAMEiPS_i
libfdk-aac.so.2:_Z32fdk_sacenc_frameWindow_GetWindowP13T_FRAMEWINDOWPiiP11FRAMINGINFOPS1_P13FRAMEWIN_LISTi
libfdk-aac.so.2:_Z32fdk_sacenc_staticGain_GetDmxGainP11STATIC_GAIN
libfdk-aac.so.2:_Z32fdk_sacenc_staticGain_OpenConfigPP18STATIC_GAIN_CONFIG
libfdk-aac.so.2:_Z32fdk_sacenc_staticGain_SetDmxGainP18STATIC_GAIN_CONFIG20MP4SPACEENC_DMX_GAIN
libfdk-aac.so.2:_Z32fdk_sacenc_staticGain_SetEncModeP18STATIC_GAIN_CONFIG16MP4SPACEENC_MODE
libfdk-aac.so.2:_Z32transportDec_RegisterAscCallbackP12TRANSPORTDECPFiPvPK21CSAudioSpecificConfighPhES1_
libfdk-aac.so.2:_Z32transportDec_RegisterSbrCallbackP12TRANSPORTDECPFiPvP13FDK_BITSTREAMiii17AUDIO_OBJECT_TYPE14MP4_ELEMENT_IDihhhPhiES1_
libfdk-aac.so.2:_Z32transportDec_RegisterSscCallbackP12TRANSPORTDECPFiPvP13FDK_BITSTREAM17AUDIO_OBJECT_TYPEiiiiiihPhES1_
libfdk-aac.so.2:_Z32transportEnc_RegisterSbrCallbackP12TRANSPORTENCPFiPvP13FDK_BITSTREAMiii17AUDIO_OBJECT_TYPE14MP4_ELEMENT_IDihhhPhiES1_
libfdk-aac.so.2:_Z32transportEnc_RegisterSscCallbackP12TRANSPORTENCPFiPvP13FDK_BITSTREAM17AUDIO_OBJECT_TYPEiiiiiihPhES1_
libfdk-aac.so.2:_Z33FDKaacEnc_CalcBandEnergyOptimLongPKiPiS0_iS1_S1_
libfdk-aac.so.2:_Z33FDKaacEnc_FreqToBandWidthRoundingiiiPKi
libfdk-aac.so.2:_Z33FDKsbrEnc_CalculateTonalityQuotasP16SBR_TON_CORR_ESTPPiS2_ii
libfdk-aac.so.2:_Z33FreeRam_aacEnc_AdjThrStateElementPP11ATS_ELEMENT
libfdk-aac.so.2:_Z33GetRequiredMemRam_Sbr_quotaMatrixv
libfdk-aac.so.2:_Z33Hcr_State_BODY_SIGN_ESC__ESC_WORDP13FDK_BITSTREAMPv
libfdk-aac.so.2:_Z33SpatialDecApplyM1_CreateW_Mode212P17spatialDec_structPK23SPATIAL_BS_FRAME_structPPiS5_S5_S5_
libfdk-aac.so.2:_Z33SpatialDecConcealment_UpdateStateP25SpatialDecConcealmentInfoi
libfdk-aac.so.2:_Z33fdk_sacenc_delay_SetMinimizeDelayP5DELAYi
libfdk-aac.so.2:_Z33fdk_sacenc_staticGain_CloseConfigPP18STATIC_GAIN_CONFIG
libfdk-aac.so.2:_Z33transportDec_RegisterUsacCallbackP12TRANSPORTDECPFiPvP13FDK_BITSTREAMES1_
libfdk-aac.so.2:_Z33transportEnc_LatmAddOtherDataBitsP11LATM_STREAMi
libfdk-aac.so.2:_Z33transportEnc_RegisterUsacCallbackP12TRANSPORTENCPFiPvP13FDK_BITSTREAMES1_
libfdk-aac.so.2:_Z34CBlock_InverseQuantizeSpectralDataP22CAacDecoderChannelInfoP16SamplingRateInfoPhh
libfdk-aac.so.2:_Z34CLatmDemux_GetOtherDataPresentFlagP10CLatmDemux
libfdk-aac.so.2:_Z34FDKaacEnc_CalcBandEnergyOptimShortPKiPiS0_iS1_
libfdk-aac.so.2:_Z34FDKaacEnc_PreProcessPnsChannelPairiPiS_S_S_S_P10PNS_CONFIGP8PNS_DATAS3_
libfdk-aac.so.2:_Z34FDKsbrEnc_CreateExtractSbrEnvelopeP20SBR_EXTRACT_ENVELOPEiiPh
libfdk-aac.so.2:_Z34FDKsbrEnc_InitSbrTransientDetectorP22SBR_TRANSIENT_DETECTORjiiP16sbrConfigurationiiiiiii
libfdk-aac.so.2:_Z34FDKsbrEnc_deleteExtractSbrEnvelopeP20SBR_EXTRACT_ENVELOPE
libfdk-aac.so.2:_Z34FDKsbrEnc_sbrNoiseFloorEstimateQmfP24SBR_NOISE_FLOOR_ESTIMATEPK14SBR_FRAME_INFOPiPS4_PaiijiP9INVF_MODEj
libfdk-aac.so.2:_Z34GetRequiredMemRam_TransportDecoderv
libfdk-aac.so.2:_Z34GetRequiredMemRam_TransportEncoderv
libfdk-aac.so.2:_Z34GetRequiredMemRam_aacEnc_PsyStaticv
libfdk-aac.so.2:_Z34GetRequiredMemRam_aacEnc_QCelementv
libfdk-aac.so.2:_Z34drcDec_GainDecoder_SetChannelGainsP16DRC_GAIN_DECODERiiPKiiPi
libfdk-aac.so.2:_Z34fdk_sacenc_delay_GetInfoCodecDelayP5DELAY
libfdk-aac.so.2:_Z34fdk_sacenc_staticPostGain_ApplyFDKP11STATIC_GAINPsii
libfdk-aac.so.2:_Z35FDK_QmfDomain_ClearPersistentMemoryP14FDK_QMF_DOMAIN
libfdk-aac.so.2:_Z35FDKaacEnc_IntensityStereoProcessingPiS_S_S_S_S_S_S_S_S_S_S_S_iiiPKiiS_S_PP8PNS_DATA
libfdk-aac.so.2:_Z35FDKaacEnc_PostProcessPnsChannelPairiP10PNS_CONFIGP8PNS_DATAS2_PiS3_
libfdk-aac.so.2:_Z35FDKaacEnc_calcSfbQuantEnergyAndDistPiPsiiS_S_
libfdk-aac.so.2:_Z35FDKsbrEnc_InitSbrNoiseFloorEstimateP24SBR_NOISE_FLOOR_ESTIMATEiPKhiiiij
libfdk-aac.so.2:_Z35GetRam_Sbr_prevEnvelopeCompensationi
libfdk-aac.so.2:_Z35GetRequiredMemAacDecoderChannelInfov
libfdk-aac.so.2:_Z35GetRequiredMemRam_aacEnc_AacEncoderv
libfdk-aac.so.2:_Z35GetRequiredMemRam_aacEnc_PsyElementv
libfdk-aac.so.2:_Z35Hcr_State_BODY_SIGN_ESC__ESC_PREFIXP13FDK_BITSTREAMPv
libfdk-aac.so.2:_Z35SpatialDecParseSpecificConfigHeaderP13FDK_BITSTREAMP25T_SPATIAL_SPECIFIC_CONFIG17AUDIO_OBJECT_TYPE22SPATIAL_DEC_UPMIX_TYPE
libfdk-aac.so.2:_Z35fdk_sacenc_getSpatialSpecificConfigP12BSF_INSTANCE
libfdk-aac.so.2:_Z35fdk_sacenc_spaceTree_GetDescriptionP10SPACE_TREEP22SPACE_TREE_DESCRIPTION
libfdk-aac.so.2:_Z35transportEnc_LatmAdjustSubframeBitsP11LATM_STREAMPi
libfdk-aac.so.2:_Z36CProgramConfig_GetChannelDescriptionjPK14CProgramConfigP18AUDIO_CHANNEL_TYPEPh
libfdk-aac.so.2:_Z36FDK_QmfDomain_WorkBuffer2ProcChannelP17FDK_QMF_DOMAIN_IN
libfdk-aac.so.2:_Z36FDKsbrEnc_CountSbrChannelPairElementP15SBR_HEADER_DATAP19T_PARAMETRIC_STEREOP18SBR_BITSTREAM_DATAP12SBR_ENV_DATAS6_P11COMMON_DATAj
libfdk-aac.so.2:_Z36FDKsbrEnc_WriteEnvChannelPairElementP15SBR_HEADER_DATAP19T_PARAMETRIC_STEREOP18SBR_BITSTREAM_DATAP12SBR_ENV_DATAS6_P11COMMON_DATAj
libfdk-aac.so.2:_Z36FDKsbrEnc_resetSbrNoiseFloorEstimateP24SBR_NOISE_FLOOR_ESTIMATEPKhi
libfdk-aac.so.2:_Z36FreeRam_Sbr_prevEnvelopeCompensationPPh
libfdk-aac.so.2:_Z36GetRequiredMemRam_aacEnc_ElementBitsv
libfdk-aac.so.2:_Z36GetRequiredMemRam_aacEnc_PsyInternalv
libfdk-aac.so.2:_Z36drcDec_GainDecoder_ProcessTimeDomainP16DRC_GAIN_DECODERi17GAIN_DEC_LOCATIONiiiiPi
libfdk-aac.so.2:_Z36drcDec_SelectionProcess_SetCodecModeP26s_drcdec_selection_process19SEL_PROC_CODEC_MODE
libfdk-aac.so.2:_Z36fdk_sacenc_delay_GetDiscardOutFramesP5DELAY
libfdk-aac.so.2:_Z36fdk_sacenc_delay_GetInfoDecoderDelayP5DELAY
libfdk-aac.so.2:_Z36transportDec_RegisterFreeMemCallbackP12TRANSPORTDECPFiPvPK21CSAudioSpecificConfigES1_
libfdk-aac.so.2:_Z37FDKaacEnc_GetChannelModeConfiguration12CHANNEL_MODE
libfdk-aac.so.2:_Z37FDKsbrEnc_deleteSbrNoiseFloorEstimateP24SBR_NOISE_FLOOR_ESTIMATE
libfdk-aac.so.2:_Z37FDKsbrEnc_qmfInverseFilteringDetectorP16SBR_INV_FILT_ESTPPiS1_PaiiiP9INVF_MODE
libfdk-aac.so.2:_Z37GetRequiredMemRam_Sbr_freqBandTableHIv
libfdk-aac.so.2:_Z37GetRequiredMemRam_Sbr_freqBandTableLOv
libfdk-aac.so.2:_Z37GetRequiredMemRam_Sbr_guideVectorDiffv
libfdk-aac.so.2:_Z37GetRequiredMemRam_Sbr_guideVectorOrigv
libfdk-aac.so.2:_Z37GetRequiredMemRam_aacEnc_BitCntrStatev
libfdk-aac.so.2:_Z37fdk_sacenc_delay_SetNSacTimeAlignmentP5DELAYi
libfdk-aac.so.2:_Z37fdk_sacenc_init_enhancedTimeDomainDmxP26T_ENHANCED_TIME_DOMAIN_DMXPKiiiii
libfdk-aac.so.2:_Z37fdk_sacenc_open_enhancedTimeDomainDmxPP26T_ENHANCED_TIME_DOMAIN_DMXi
libfdk-aac.so.2:_Z37fdk_sacenc_spaceTree_Hybrid2ParamBandii
libfdk-aac.so.2:_Z37fdk_sacenc_writeSpatialSpecificConfigP21SPATIALSPECIFICCONFIGPhiPi
libfdk-aac.so.2:_Z38FDKsbrEnc_InitSbrFastTransientDetectorP18FAST_TRAN_DETECTORiiii
libfdk-aac.so.2:_Z38FDKsbrEnc_WriteEnvSingleChannelElementP15SBR_HEADER_DATAP19T_PARAMETRIC_STEREOP18SBR_BITSTREAM_DATAP12SBR_ENV_DATAP11COMMON_DATAj
libfdk-aac.so.2:_Z38GetRequiredMemRam_PsQmfStatesSynthesisv
libfdk-aac.so.2:_Z38GetRequiredMemRam_Sbr_detectionVectorsv
libfdk-aac.so.2:_Z38GetRequiredMemRam_aacEnc_PsyOutChannelv
libfdk-aac.so.2:_Z38drcDec_GainDecoder_GetDeltaTminDefaultP16DRC_GAIN_DECODER
libfdk-aac.so.2:_Z38fdk_sacenc_apply_enhancedTimeDomainDmxP26T_ENHANCED_TIME_DOMAIN_DMXPKPKsPsi
libfdk-aac.so.2:_Z38fdk_sacenc_close_enhancedTimeDomainDmxPP26T_ENHANCED_TIME_DOMAIN_DMX
libfdk-aac.so.2:_Z38fdk_sacenc_initSpatialBitstreamEncoderP12BSF_INSTANCE
libfdk-aac.so.2:_Z38transportDec_GetMissingAccessUnitCountPiP12TRANSPORTDEC
libfdk-aac.so.2:_Z39FDK_MpegsEnc_WriteSpatialSpecificConfigP11MPS_ENCODERP13FDK_BITSTREAM
libfdk-aac.so.2:_Z39GetRequiredMemRam_Sbr_QmfStatesAnalysisv
libfdk-aac.so.2:_Z39GetRequiredMemRam_aacEnc_PsyInputBufferv
libfdk-aac.so.2:_Z39GetRequiredMemRam_aacEnc_PsyOutElementsv
libfdk-aac.so.2:_Z39drcDec_GainDecoder_ProcessSubbandDomainP16DRC_GAIN_DECODERi17GAIN_DEC_LOCATIONiiiiPPiS3_
libfdk-aac.so.2:_Z39fdk_sacenc_delay_GetDmxAlignBufferDelayP5DELAY
libfdk-aac.so.2:_Z39fdk_sacenc_staticGain_InitDefaultConfigP18STATIC_GAIN_CONFIG
libfdk-aac.so.2:_Z39transportDec_DrmRawSdcAudioConfig_CheckPhj
libfdk-aac.so.2:_Z3fftiPiS_
libfdk-aac.so.2:_Z40CAacDecoder_PreRollExtensionPayloadParseP20AAC_DECODER_INSTANCEPjS1_S1_
libfdk-aac.so.2:_Z40FDKsbrEnc_SbrMissingHarmonicsDetectorQmfP30SBR_MISSING_HARMONICS_DETECTORPPiS2_PaPK14SBR_FRAME_INFOPKhS1_PhS8_iS9_S1_
libfdk-aac.so.2:_Z40GetRequiredMemRam_TransportDecoderBufferv
libfdk-aac.so.2:_Z40GetRequiredMemRam_aacEnc_AdjustThresholdv
libfdk-aac.so.2:_Z40fdk_sacenc_createSpatialBitstreamEncoderPP12BSF_INSTANCE
libfdk-aac.so.2:_Z40fdk_sacenc_delay_SubCalulateBufferDelaysP5DELAY
libfdk-aac.so.2:_Z41FDKsbrEnc_InitSbrMissingHarmonicsDetectorP30SBR_MISSING_HARMONICS_DETECTORiiiiiiij
libfdk-aac.so.2:_Z41GetRequiredMemAacDecoderStaticChannelInfov
libfdk-aac.so.2:_Z41GetRequiredMemRam_Sbr_guideVectorDetectedv
libfdk-aac.so.2:_Z41fdk_sacenc_destroySpatialBitstreamEncoderPP12BSF_INSTANCE
libfdk-aac.so.2:_Z41transportDec_RegisterUniDrcConfigCallbackP12TRANSPORTDECPFiPvP13FDK_BITSTREAMiiii17AUDIO_OBJECT_TYPEES1_Pj
libfdk-aac.so.2:_Z42FDKsbrEnc_PSEnc_ParametricStereoProcessingP19T_PARAMETRIC_STEREOPPsjPP15QMF_FILTER_BANKPPiS7_S1_S4_Pai
libfdk-aac.so.2:_Z42FDKsbrEnc_ResetSbrMissingHarmonicsDetectorP30SBR_MISSING_HARMONICS_DETECTORi
libfdk-aac.so.2:_Z42fdk_sacenc_delay_GetOutputAudioBufferDelayP5DELAY
libfdk-aac.so.2:_Z42transportDec_RegisterCtrlCFGChangeCallbackP12TRANSPORTDECPFiPvPK14CCtrlCFGChangeES1_
libfdk-aac.so.2:_Z42transportEnc_LatmCountTotalBitDemandHeaderP11LATM_STREAMj
libfdk-aac.so.2:_Z43FDKsbrEnc_CreateSbrMissingHarmonicsDetectorP30SBR_MISSING_HARMONICS_DETECTORi
libfdk-aac.so.2:_Z43FDKsbrEnc_DeleteSbrMissingHarmonicsDetectorP30SBR_MISSING_HARMONICS_DETECTOR
libfdk-aac.so.2:_Z43GetRequiredMemRam_aacEnc_AdjThrStateElementv
libfdk-aac.so.2:_Z44fdk_sacenc_delay_GetBitstreamFrameBufferSizeP5DELAY
libfdk-aac.so.2:_Z45fdk_sacenc_calcParameterBand2HybridBandOffset18BOX_SUBBAND_CONFIGiPh
libfdk-aac.so.2:_Z45fdk_sacenc_delay_GetArbDmxAnalysisBufferDelayP5DELAY
libfdk-aac.so.2:_Z46GetRequiredMemRam_Sbr_prevEnvelopeCompensationv
libfdk-aac.so.2:_Z46drcDec_GainDecoder_SetCodecDependentParametersP16DRC_GAIN_DECODER10DELAY_MODEi19SUBBAND_DOMAIN_MODE
libfdk-aac.so.2:_Z46fdk_sacenc_delay_SetSacTimeAlignmentDynamicOutP5DELAYi
libfdk-aac.so.2:_Z47fdk_sacenc_delay_GetSurroundAnalysisBufferDelayP5DELAY
libfdk-aac.so.2:_Z49BidirectionalEstimation_UseLowerScfOfCurrentFrameP22CAacDecoderChannelInfo
libfdk-aac.so.2:_Z49drcDec_GainDecoder_SetLoudnessNormalizationGainDbP16DRC_GAIN_DECODERi
libfdk-aac.so.2:_Z4fPowiiiiPi
libfdk-aac.so.2:_Z4ifftiPiS_
libfdk-aac.so.2:_Z50SpatialDecApplyM2_Mode212_ResidualsPlusPhaseCodingP17spatialDec_structisPPiS2_S2_S2_
libfdk-aac.so.2:_Z52BidirectionalEstimation_UseScfOfPrevFrameAsReferenceP22CAacDecoderChannelInfoP28CAacDecoderStaticChannelInfo
libfdk-aac.so.2:_Z5f2Powii
libfdk-aac.so.2:_Z5f2PowiiPi
libfdk-aac.so.2:_Z6DeemphPiS_iS_
libfdk-aac.so.2:_Z6dB2liniiPi
libfdk-aac.so.2:_Z6dct_IIPiS_iS_
libfdk-aac.so.2:_Z6dct_IVPiiS_
libfdk-aac.so.2:_Z6dst_IVPiiS_
libfdk-aac.so.2:_Z6fLdPowiiii
libfdk-aac.so.2:_Z6fLdPowiiiiPi
libfdk-aac.so.2:_Z6fft_16Pi
libfdk-aac.so.2:_Z6fft_32Pi
libfdk-aac.so.2:_Z6filtLPPKiPiS1_PKsiii
libfdk-aac.so.2:_Z6lin2dBiiPi
libfdk-aac.so.2:_Z7HcrInitP10CErHcrInfoP22CAacDecoderChannelInfoPK16SamplingRateInfoP13FDK_BITSTREAM
libfdk-aac.so.2:_Z7IcsReadP13FDK_BITSTREAMP8CIcsInfoPK16SamplingRateInfoj
libfdk-aac.so.2:_Z7RE8_PPVPiPsi
libfdk-aac.so.2:_Z7TsdReadP13FDK_BITSTREAMiP8TSD_DATA
libfdk-aac.so.2:_Z7dct_IIIPiS_iS_
libfdk-aac.so.2:_Z7dit_fftPiiPK8FIXP_SPKi
libfdk-aac.so.2:_Z7dst_IIIPiS_iS_
libfdk-aac.so.2:_Z7fPowIntiiiPi
libfdk-aac.so.2:_Z7sbr_decP7SBR_DECPiS1_S0_S1_iP15SBR_HEADER_DATAP14SBR_FRAME_DATAP19SBR_PREV_FRAME_DATAiP6PS_DECjii
libfdk-aac.so.2:_Z8CalcLog2iiPi
libfdk-aac.so.2:_Z8DecodePsP6PS_DEChP19PS_DEC_COEFFICIENTS
libfdk-aac.so.2:_Z8Pred_lt4Piii
libfdk-aac.so.2:_Z8Syn_filtPKsiiPiS1_
libfdk-aac.so.2:_Z8TsdApplyiPK8TSD_DATAPiPKiS4_S2_S2_
libfdk-aac.so.2:_Z8fDivNormii
libfdk-aac.so.2:_Z8fDivNormiiPi
libfdk-aac.so.2:_Z8fixp_cosii
libfdk-aac.so.2:_Z8fixp_sinii
libfdk-aac.so.2:_Z8get_gainPKiS0_i
libfdk-aac.so.2:_Z9CHcr_ReadP13FDK_BITSTREAMP22CAacDecoderChannelInfo14MP4_ELEMENT_ID
libfdk-aac.so.2:_Z9CLpc_ReadP13FDK_BITSTREAMPA16_sPsS3_S3_Phiii
libfdk-aac.so.2:_Z9CPns_ReadP8CPnsDataP13FDK_BITSTREAMPK19CodeBookDescriptionPshii
libfdk-aac.so.2:_Z9CTns_ReadP13FDK_BITSTREAMP8CTnsDataPK8CIcsInfoj
libfdk-aac.so.2:_Z9CalcLdInti
libfdk-aac.so.2:_Z9InitLdIntv
libfdk-aac.so.2:_Z9fMultNormiiPi
libfdk-aac.so.2:_Z9fixp_atani
libfdk-aac.so.2:_Z9fixp_ceilii
libfdk-aac.so.2:_Z9getChGainP17spatialDec_structjPi
libfdk-aac.so.2:_Z9initBBEnvP17spatialDec_structi
libfdk-aac.so.2:_Z9mdct_initP6mdct_tPii
libfdk-aac.so.2:_Z9shellsortPhh
libfdk-aac.so.2:aacDecoder_AncDataGet
libfdk-aac.so.2:aacDecoder_AncDataInit
libfdk-aac.so.2:aacDecoder_Close
libfdk-aac.so.2:aacDecoder_ConfigRaw
libfdk-aac.so.2:aacDecoder_DecodeFrame
libfdk-aac.so.2:aacDecoder_Fill
libfdk-aac.so.2:aacDecoder_GetFreeBytes
libfdk-aac.so.2:aacDecoder_GetLibInfo
libfdk-aac.so.2:aacDecoder_GetStreamInfo
libfdk-aac.so.2:aacDecoder_Open
libfdk-aac.so.2:aacDecoder_RawISOBMFFData
libfdk-aac.so.2:aacDecoder_SetParam
libfdk-aac.so.2:aacEncClose
libfdk-aac.so.2:aacEncEncode
libfdk-aac.so.2:aacEncGetLibInfo
libfdk-aac.so.2:aacEncInfo
libfdk-aac.so.2:aacEncOpen
libfdk-aac.so.2:aacEncoder_GetParam
libfdk-aac.so.2:aacEncoder_SetParam
libfdk-aac.so.2:mpegSurroundDecoder_Apply
libfdk-aac.so.2:mpegSurroundDecoder_Close
libfdk-aac.so.2:mpegSurroundDecoder_Config
libfdk-aac.so.2:mpegSurroundDecoder_ConfigureQmfDomain
libfdk-aac.so.2:mpegSurroundDecoder_FreeMem
libfdk-aac.so.2:mpegSurroundDecoder_GetDelay
libfdk-aac.so.2:mpegSurroundDecoder_GetLibInfo
libfdk-aac.so.2:mpegSurroundDecoder_Init
libfdk-aac.so.2:mpegSurroundDecoder_IsFullMpegSurroundDecoderInstanceAvailable
libfdk-aac.so.2:mpegSurroundDecoder_IsPseudoLR
libfdk-aac.so.2:mpegSurroundDecoder_Open
libfdk-aac.so.2:mpegSurroundDecoder_Parse
libfdk-aac.so.2:mpegSurroundDecoder_ParseNoHeader
libfdk-aac.so.2:mpegSurroundDecoder_SetParam
libfdk-aac.so.2:pcmDmx_ApplyFrame
libfdk-aac.so.2:pcmDmx_Close
libfdk-aac.so.2:pcmDmx_GetLibInfo
libfdk-aac.so.2:pcmDmx_GetParam
libfdk-aac.so.2:pcmDmx_Open
libfdk-aac.so.2:pcmDmx_Parse
libfdk-aac.so.2:pcmDmx_ReadDvbAncData
libfdk-aac.so.2:pcmDmx_Reset
libfdk-aac.so.2:pcmDmx_SetMatrixMixdownFromPce
libfdk-aac.so.2:pcmDmx_SetParam
libfdk-aac.so.2:pcmLimiter_Destroy
libfdk-aac.so.2:pcmLimiter_GetDelay
libfdk-aac.so.2:pcmLimiter_GetLibInfo
libfdk-aac.so.2:pcmLimiter_GetMaxGainReduction
libfdk-aac.so.2:pcmLimiter_Reset
libfdk-aac.so.2:pcmLimiter_SetAttack
libfdk-aac.so.2:pcmLimiter_SetNChannels
libfdk-aac.so.2:pcmLimiter_SetRelease
libfdk-aac.so.2:pcmLimiter_SetSampleRate
libfdk-aac.so.2:sbrDecoder_Apply
libfdk-aac.so.2:sbrDecoder_Close
libfdk-aac.so.2:sbrDecoder_FreeMem
libfdk-aac.so.2:sbrDecoder_GetDelay
libfdk-aac.so.2:sbrDecoder_GetLibInfo
libfdk-aac.so.2:sbrDecoder_Header
libfdk-aac.so.2:sbrDecoder_InitElement
libfdk-aac.so.2:sbrDecoder_Open
libfdk-aac.so.2:sbrDecoder_Parse
libfdk-aac.so.2:sbrDecoder_SetParam
libfdk-aac.so.2:sbrDecoder_drcDisable
libfdk-aac.so.2:sbrDecoder_drcFeedChannel
libfdk-aac.so.2:sbrEncoder_Close
libfdk-aac.so.2:sbrEncoder_ContainsHeader
libfdk-aac.so.2:sbrEncoder_EncodeFrame
libfdk-aac.so.2:sbrEncoder_GetBsDelay
libfdk-aac.so.2:sbrEncoder_GetEstimateBitrate
libfdk-aac.so.2:sbrEncoder_GetHeader
libfdk-aac.so.2:sbrEncoder_GetHeaderDelay
libfdk-aac.so.2:sbrEncoder_GetInBufferSize
libfdk-aac.so.2:sbrEncoder_GetInputDataDelay
libfdk-aac.so.2:sbrEncoder_GetLibInfo
libfdk-aac.so.2:sbrEncoder_GetSbrDecDelay
libfdk-aac.so.2:sbrEncoder_Init
libfdk-aac.so.2:sbrEncoder_IsSingleRatePossible
libfdk-aac.so.2:sbrEncoder_LimitBitRate
libfdk-aac.so.2:sbrEncoder_Open
libfdk-aac.so.2:sbrEncoder_SAPPrepare
libfdk-aac.so.2:sbrEncoder_SendHeader
libfdk-aac.so.2:sbrEncoder_UpdateBuffers
